Archive member included because of file (symbol)

/media/source/kernel-3.4.0/mediatek/platform/mt6577/preloader/src/SecLib.a(efuse.o)
                              /media/source/kernel-3.4.0/mediatek/preloader/out/download.o (seclib_sbc_enabled)
/media/source/kernel-3.4.0/mediatek/platform/mt6577/preloader/src/SecLib.a(meta.o)
                              /media/source/kernel-3.4.0/mediatek/preloader/out/main.o (seclib_brom_meta_mode)
/media/source/kernel-3.4.0/mediatek/platform/mt6577/preloader/src/SecLib.a(seclib_boot.o)
                              /media/source/kernel-3.4.0/mediatek/preloader/out/sec_boot.o (seclib_sec_boot_enabled)
/media/source/kernel-3.4.0/mediatek/platform/mt6577/preloader/src/SecLib.a(seclib_dl.o)
                              /media/source/kernel-3.4.0/mediatek/preloader/out/download.o (seclib_sec_usbdl_enabled)
/media/source/kernel-3.4.0/mediatek/platform/mt6577/preloader/src/SecLib.a(seclib_img_hash.o)
                              /media/source/kernel-3.4.0/mediatek/preloader/out/sec_auth.o (seclib_image_hash_compute)
/media/source/kernel-3.4.0/mediatek/platform/mt6577/preloader/src/SecLib.a(seclib_img_verify.o)
                              /media/source/kernel-3.4.0/mediatek/platform/mt6577/preloader/src/SecLib.a(seclib_boot.o) (seclib_image_verify)
/media/source/kernel-3.4.0/mediatek/platform/mt6577/preloader/src/SecLib.a(seclib_key.o)
                              /media/source/kernel-3.4.0/mediatek/preloader/out/sec_key.o (seclib_read_sbc_key)
/media/source/kernel-3.4.0/mediatek/platform/mt6577/preloader/src/SecLib.a(seclib.o)
                              /media/source/kernel-3.4.0/mediatek/platform/mt6577/preloader/src/SecLib.a(seclib_boot.o) (g_cust)
/media/source/kernel-3.4.0/mediatek/platform/mt6577/preloader/src/SecLib.a(seclib_region.o)
                              /media/source/kernel-3.4.0/mediatek/preloader/out/sec_region.o (seclib_region_check)
/media/source/kernel-3.4.0/mediatek/platform/mt6577/preloader/src/SecLib.a(seclib_secroimg.o)
                              /media/source/kernel-3.4.0/mediatek/preloader/out/sec_secroimg.o (seclib_secroimg_read)
/media/source/kernel-3.4.0/mediatek/platform/mt6577/preloader/src/SecLib.a(seclib_sej_export.o)
                              /media/source/kernel-3.4.0/mediatek/platform/mt6577/preloader/src/SecLib.a(seclib.o) (sp_read_swotp)
/media/source/kernel-3.4.0/mediatek/platform/mt6577/preloader/src/SecLib.a(seclib_util.o)
                              /media/source/kernel-3.4.0/mediatek/platform/mt6577/preloader/src/SecLib.a(seclib_img_verify.o) (seclib_image_hash_dump)
/media/source/kernel-3.4.0/mediatek/platform/mt6577/preloader/src/SecLib.a(sej_hk.o)
                              /media/source/kernel-3.4.0/mediatek/platform/mt6577/preloader/src/SecLib.a(seclib_sej_export.o) (SEJ_V3_Init)
/media/source/kernel-3.4.0/mediatek/platform/mt6577/preloader/src/SecLib.a(sej_sk.o)
                              /media/source/kernel-3.4.0/mediatek/platform/mt6577/preloader/src/SecLib.a(seclib_sej_export.o) (sej_set_key)
/media/source/kernel-3.4.0/mediatek/platform/mt6577/preloader/src/SecLib.a(sha1.o)
                              /media/source/kernel-3.4.0/mediatek/platform/mt6577/preloader/src/SecLib.a(seclib_img_hash.o) (sha1)
/media/source/kernel-3.4.0/mediatek/platform/mt6577/preloader/src/SecLib.a(weak_auth.o)
                              /media/source/kernel-3.4.0/mediatek/preloader/out/sec_auth.o (seclib_rsa_init)
/media/source/kernel-3.4.0/mediatek/platform/mt6577/preloader/src/SecLib.a(seccfg_crypto.o)
                              /media/source/kernel-3.4.0/mediatek/platform/mt6577/preloader/src/SecLib.a(seclib_boot.o) (get_seccfg_cipher_len)
/media/source/kernel-3.4.0/mediatek/platform/mt6577/preloader/src/security/auth/DaVerifyLib.a(auth.o)
                              /media/source/kernel-3.4.0/mediatek/preloader/out/sec_auth.o (seclib_mtk_rsa_n_key_len)
/media/source/kernel-3.4.0/mediatek/platform/mt6577/preloader/src/security/auth/DaVerifyLib.a(bgn_io.o)
                              /media/source/kernel-3.4.0/mediatek/platform/mt6577/preloader/src/security/auth/DaVerifyLib.a(auth.o) (bgn_read_str)
/media/source/kernel-3.4.0/mediatek/platform/mt6577/preloader/src/security/auth/DaVerifyLib.a(bgn_util.o)
                              /media/source/kernel-3.4.0/mediatek/platform/mt6577/preloader/src/security/auth/DaVerifyLib.a(bgn_io.o) (bgn_grow)
/media/source/kernel-3.4.0/mediatek/platform/mt6577/preloader/src/security/auth/DaVerifyLib.a(rsa.o)
                              /media/source/kernel-3.4.0/mediatek/platform/mt6577/preloader/src/security/auth/DaVerifyLib.a(auth.o) (rsa_verify)
/media/source/kernel-3.4.0/mediatek/platform/mt6577/preloader/src/security/auth/DaVerifyLib.a(stdlib.o)
                              /media/source/kernel-3.4.0/mediatek/preloader/out/nand_common_inter.o (malloc)
/media/source/kernel-3.4.0/mediatek/platform/mt6577/preloader/src/security/auth/DaVerifyLib.a(bgn_core.o)
                              /media/source/kernel-3.4.0/mediatek/platform/mt6577/preloader/src/security/auth/DaVerifyLib.a(bgn_io.o) (bgn_init)
/media/source/kernel-3.4.0/mediatek/platform/mt6577/preloader/src/security/auth/DaVerifyLib.a(montg.o)
                              /media/source/kernel-3.4.0/mediatek/platform/mt6577/preloader/src/security/auth/DaVerifyLib.a(bgn_core.o) (montg_init)

Discarded input sections

 .text          0x00000000        0x0 /media/source/kernel-3.4.0/mediatek/preloader/out/addr_trans.o
 .data          0x00000000        0x0 /media/source/kernel-3.4.0/mediatek/preloader/out/addr_trans.o
 .bss           0x00000000        0x0 /media/source/kernel-3.4.0/mediatek/preloader/out/addr_trans.o
 .text.phys_to_virt_addr
                0x00000000       0x98 /media/source/kernel-3.4.0/mediatek/preloader/out/addr_trans.o
 .note.GNU-stack
                0x00000000        0x0 /media/source/kernel-3.4.0/mediatek/preloader/out/addr_trans.o
 .text          0x00000000        0x0 /media/source/kernel-3.4.0/mediatek/preloader/out/blkdev.o
 .data          0x00000000        0x0 /media/source/kernel-3.4.0/mediatek/preloader/out/blkdev.o
 .bss           0x00000000        0x0 /media/source/kernel-3.4.0/mediatek/preloader/out/blkdev.o
 .text.blkdev_bread
                0x00000000       0x10 /media/source/kernel-3.4.0/mediatek/preloader/out/blkdev.o
 .text.blkdev_bwrite
                0x00000000       0x10 /media/source/kernel-3.4.0/mediatek/preloader/out/blkdev.o
 .note.GNU-stack
                0x00000000        0x0 /media/source/kernel-3.4.0/mediatek/preloader/out/blkdev.o
 .text          0x00000000        0x0 /media/source/kernel-3.4.0/mediatek/preloader/out/bmt.o
 .data          0x00000000        0x0 /media/source/kernel-3.4.0/mediatek/preloader/out/bmt.o
 .bss           0x00000000        0x0 /media/source/kernel-3.4.0/mediatek/preloader/out/bmt.o
 .text.fill_nand_bmt_buffer
                0x00000000      0x130 /media/source/kernel-3.4.0/mediatek/preloader/out/bmt.o
 .text.nand_read_page_bmt
                0x00000000        0x4 /media/source/kernel-3.4.0/mediatek/preloader/out/bmt.o
 .text.nand_block_bad_bmt
                0x00000000        0x4 /media/source/kernel-3.4.0/mediatek/preloader/out/bmt.o
 .text.nand_erase_bmt
                0x00000000        0x4 /media/source/kernel-3.4.0/mediatek/preloader/out/bmt.o
 .text.mark_block_bad_bmt
                0x00000000        0xc /media/source/kernel-3.4.0/mediatek/preloader/out/bmt.o
 .text.find_available_block
                0x00000000      0x294 /media/source/kernel-3.4.0/mediatek/preloader/out/bmt.o
 .text.load_bmt_data
                0x00000000      0x3d8 /media/source/kernel-3.4.0/mediatek/preloader/out/bmt.o
 .text.nand_write_page_bmt
                0x00000000       0x10 /media/source/kernel-3.4.0/mediatek/preloader/out/bmt.o
 .text.write_bmt_to_flash
                0x00000000      0x1ac /media/source/kernel-3.4.0/mediatek/preloader/out/bmt.o
 .text.set_bad_index_to_oob
                0x00000000       0x20 /media/source/kernel-3.4.0/mediatek/preloader/out/bmt.o
 .text.reconstruct_bmt
                0x00000000      0x29c /media/source/kernel-3.4.0/mediatek/preloader/out/bmt.o
 .text.init_bmt
                0x00000000      0x1b8 /media/source/kernel-3.4.0/mediatek/preloader/out/bmt.o
 .text.update_bmt
                0x00000000      0x478 /media/source/kernel-3.4.0/mediatek/preloader/out/bmt.o
 .text.get_mapping_block_index
                0x00000000       0xa4 /media/source/kernel-3.4.0/mediatek/preloader/out/bmt.o
 .bss.system_block_count
                0x00000000        0x4 /media/source/kernel-3.4.0/mediatek/preloader/out/bmt.o
 .bss.nand_chip_bmt
                0x00000000        0x4 /media/source/kernel-3.4.0/mediatek/preloader/out/bmt.o
 .data.MAIN_SIGNATURE
                0x00000000        0x4 /media/source/kernel-3.4.0/mediatek/preloader/out/bmt.o
 .rodata.__FUNCTION__.1418
                0x00000000        0xe /media/source/kernel-3.4.0/mediatek/preloader/out/bmt.o
 .rodata.__FUNCTION__.1375
                0x00000000       0x14 /media/source/kernel-3.4.0/mediatek/preloader/out/bmt.o
 .bss.total_block_count
                0x00000000        0x4 /media/source/kernel-3.4.0/mediatek/preloader/out/bmt.o
 .rodata.str1.1
                0x00000000      0x7c1 /media/source/kernel-3.4.0/mediatek/preloader/out/bmt.o
 .data.OOB_SIGNATURE
                0x00000000        0x4 /media/source/kernel-3.4.0/mediatek/preloader/out/bmt.o
 .bss.bmt_block_index
                0x00000000        0x4 /media/source/kernel-3.4.0/mediatek/preloader/out/bmt.o
 .bss.bmt_block_count
                0x00000000        0x4 /media/source/kernel-3.4.0/mediatek/preloader/out/bmt.o
 .bss.page_per_block
                0x00000000        0x4 /media/source/kernel-3.4.0/mediatek/preloader/out/bmt.o
 .bss.pool_erased
                0x00000000        0x1 /media/source/kernel-3.4.0/mediatek/preloader/out/bmt.o
 .bss.bmt       0x00000000      0x204 /media/source/kernel-3.4.0/mediatek/preloader/out/bmt.o
 .note.GNU-stack
                0x00000000        0x0 /media/source/kernel-3.4.0/mediatek/preloader/out/bmt.o
 .text          0x00000000        0x0 /media/source/kernel-3.4.0/mediatek/preloader/out/circbuf.o
 .data          0x00000000        0x0 /media/source/kernel-3.4.0/mediatek/preloader/out/circbuf.o
 .bss           0x00000000        0x0 /media/source/kernel-3.4.0/mediatek/preloader/out/circbuf.o
 .note.GNU-stack
                0x00000000        0x0 /media/source/kernel-3.4.0/mediatek/preloader/out/circbuf.o
 .text          0x00000000        0x0 /media/source/kernel-3.4.0/mediatek/preloader/out/cust_msdc.o
 .data          0x00000000        0x0 /media/source/kernel-3.4.0/mediatek/preloader/out/cust_msdc.o
 .bss           0x00000000        0x0 /media/source/kernel-3.4.0/mediatek/preloader/out/cust_msdc.o
 .note.GNU-stack
                0x00000000        0x0 /media/source/kernel-3.4.0/mediatek/preloader/out/cust_msdc.o
 .text          0x00000000        0x0 /media/source/kernel-3.4.0/mediatek/preloader/out/custom_emi.o
 .data          0x00000000        0x0 /media/source/kernel-3.4.0/mediatek/preloader/out/custom_emi.o
 .bss           0x00000000        0x0 /media/source/kernel-3.4.0/mediatek/preloader/out/custom_emi.o
 .note.GNU-stack
                0x00000000        0x0 /media/source/kernel-3.4.0/mediatek/preloader/out/custom_emi.o
 .text          0x00000000        0x0 /media/source/kernel-3.4.0/mediatek/preloader/out/cust_part.o
 .data          0x00000000        0x0 /media/source/kernel-3.4.0/mediatek/preloader/out/cust_part.o
 .bss           0x00000000        0x0 /media/source/kernel-3.4.0/mediatek/preloader/out/cust_part.o
 .note.GNU-stack
                0x00000000        0x0 /media/source/kernel-3.4.0/mediatek/preloader/out/cust_part.o
 .text          0x00000000        0x0 /media/source/kernel-3.4.0/mediatek/preloader/out/device_apc.o
 .data          0x00000000        0x0 /media/source/kernel-3.4.0/mediatek/preloader/out/device_apc.o
 .bss           0x00000000        0x0 /media/source/kernel-3.4.0/mediatek/preloader/out/device_apc.o
 .note.GNU-stack
                0x00000000        0x0 /media/source/kernel-3.4.0/mediatek/preloader/out/device_apc.o
 .text          0x00000000        0x0 /media/source/kernel-3.4.0/mediatek/preloader/out/div0.o
 .data          0x00000000        0x0 /media/source/kernel-3.4.0/mediatek/preloader/out/div0.o
 .bss           0x00000000        0x0 /media/source/kernel-3.4.0/mediatek/preloader/out/div0.o
 .note.GNU-stack
                0x00000000        0x0 /media/source/kernel-3.4.0/mediatek/preloader/out/div0.o
 .text          0x00000000        0x0 /media/source/kernel-3.4.0/mediatek/preloader/out/download_legacy.o
 .data          0x00000000        0x0 /media/source/kernel-3.4.0/mediatek/preloader/out/download_legacy.o
 .bss           0x00000000        0x0 /media/source/kernel-3.4.0/mediatek/preloader/out/download_legacy.o
 .note.GNU-stack
                0x00000000        0x0 /media/source/kernel-3.4.0/mediatek/preloader/out/download_legacy.o
 .text          0x00000000        0x0 /media/source/kernel-3.4.0/mediatek/preloader/out/download_legacy_utils.o
 .data          0x00000000        0x0 /media/source/kernel-3.4.0/mediatek/preloader/out/download_legacy_utils.o
 .bss           0x00000000        0x0 /media/source/kernel-3.4.0/mediatek/preloader/out/download_legacy_utils.o
 .note.GNU-stack
                0x00000000        0x0 /media/source/kernel-3.4.0/mediatek/preloader/out/download_legacy_utils.o
 .text          0x00000000        0x0 /media/source/kernel-3.4.0/mediatek/preloader/out/download.o
 .data          0x00000000        0x0 /media/source/kernel-3.4.0/mediatek/preloader/out/download.o
 .bss           0x00000000        0x0 /media/source/kernel-3.4.0/mediatek/preloader/out/download.o
 .note.GNU-stack
                0x00000000        0x0 /media/source/kernel-3.4.0/mediatek/preloader/out/download.o
 .text          0x00000000        0x0 /media/source/kernel-3.4.0/mediatek/preloader/out/dramc_calib.o
 .data          0x00000000        0x0 /media/source/kernel-3.4.0/mediatek/preloader/out/dramc_calib.o
 .bss           0x00000000        0x0 /media/source/kernel-3.4.0/mediatek/preloader/out/dramc_calib.o
 .note.GNU-stack
                0x00000000        0x0 /media/source/kernel-3.4.0/mediatek/preloader/out/dramc_calib.o
 .text          0x00000000        0x0 /media/source/kernel-3.4.0/mediatek/preloader/out/dramc_dqs_gw.o
 .bss           0x00000000        0x0 /media/source/kernel-3.4.0/mediatek/preloader/out/dramc_dqs_gw.o
 .text.ett_print_dqs_gw_after_finish_loop_n
                0x00000000       0x18 /media/source/kernel-3.4.0/mediatek/preloader/out/dramc_dqs_gw.o
 .note.GNU-stack
                0x00000000        0x0 /media/source/kernel-3.4.0/mediatek/preloader/out/dramc_dqs_gw.o
 .data          0x00000000        0x0 /media/source/kernel-3.4.0/mediatek/preloader/out/eabi_idiv.o
 .bss           0x00000000        0x0 /media/source/kernel-3.4.0/mediatek/preloader/out/eabi_idiv.o
 .data          0x00000000        0x0 /media/source/kernel-3.4.0/mediatek/preloader/out/eabi.o
 .bss           0x00000000        0x0 /media/source/kernel-3.4.0/mediatek/preloader/out/eabi.o
 .data          0x00000000        0x0 /media/source/kernel-3.4.0/mediatek/preloader/out/eabi_uldivmod.o
 .bss           0x00000000        0x0 /media/source/kernel-3.4.0/mediatek/preloader/out/eabi_uldivmod.o
 .text          0x00000000        0x0 /media/source/kernel-3.4.0/mediatek/preloader/out/gpio.o
 .data          0x00000000        0x0 /media/source/kernel-3.4.0/mediatek/preloader/out/gpio.o
 .bss           0x00000000        0x0 /media/source/kernel-3.4.0/mediatek/preloader/out/gpio.o
 .text.mt_get_gpio_dir
                0x00000000       0x3c /media/source/kernel-3.4.0/mediatek/preloader/out/gpio.o
 .text.mt_get_gpio_pull_enable
                0x00000000       0x40 /media/source/kernel-3.4.0/mediatek/preloader/out/gpio.o
 .text.mt_get_gpio_pull_select
                0x00000000       0x40 /media/source/kernel-3.4.0/mediatek/preloader/out/gpio.o
 .text.mt_set_gpio_inversion
                0x00000000       0x80 /media/source/kernel-3.4.0/mediatek/preloader/out/gpio.o
 .text.mt_get_gpio_inversion
                0x00000000       0x40 /media/source/kernel-3.4.0/mediatek/preloader/out/gpio.o
 .text.mt_get_gpio_out
                0x00000000       0x40 /media/source/kernel-3.4.0/mediatek/preloader/out/gpio.o
 .text.mt_get_gpio_in
                0x00000000       0x40 /media/source/kernel-3.4.0/mediatek/preloader/out/gpio.o
 .text.mt_get_gpio_mode
                0x00000000       0x54 /media/source/kernel-3.4.0/mediatek/preloader/out/gpio.o
 .text.mt_set_clock_output
                0x00000000       0x4c /media/source/kernel-3.4.0/mediatek/preloader/out/gpio.o
 .text.mt_get_clock_output
                0x00000000       0x6c /media/source/kernel-3.4.0/mediatek/preloader/out/gpio.o
 .rodata.str1.1
                0x00000000       0x12 /media/source/kernel-3.4.0/mediatek/preloader/out/gpio.o
 .rodata.clkout_reg_addr
                0x00000000       0x18 /media/source/kernel-3.4.0/mediatek/preloader/out/gpio.o
 .note.GNU-stack
                0x00000000        0x0 /media/source/kernel-3.4.0/mediatek/preloader/out/gpio.o
 .text          0x00000000        0x0 /media/source/kernel-3.4.0/mediatek/preloader/out/handshake_uart.o
 .bss           0x00000000        0x0 /media/source/kernel-3.4.0/mediatek/preloader/out/handshake_uart.o
 .note.GNU-stack
                0x00000000        0x0 /media/source/kernel-3.4.0/mediatek/preloader/out/handshake_uart.o
 .text          0x00000000        0x0 /media/source/kernel-3.4.0/mediatek/preloader/out/handshake_usb.o
 .bss           0x00000000        0x0 /media/source/kernel-3.4.0/mediatek/preloader/out/handshake_usb.o
 .note.GNU-stack
                0x00000000        0x0 /media/source/kernel-3.4.0/mediatek/preloader/out/handshake_usb.o
 .text          0x00000000        0x0 /media/source/kernel-3.4.0/mediatek/preloader/out/init.o
 .data          0x00000000        0x0 /media/source/kernel-3.4.0/mediatek/preloader/out/init.o
 .bss           0x00000000        0x0 /media/source/kernel-3.4.0/mediatek/preloader/out/init.o
 .text          0x00000000        0x0 /media/source/kernel-3.4.0/mediatek/preloader/out/main.o
 .data          0x00000000        0x0 /media/source/kernel-3.4.0/mediatek/preloader/out/main.o
 .bss           0x00000000        0x0 /media/source/kernel-3.4.0/mediatek/preloader/out/main.o
 .note.GNU-stack
                0x00000000        0x0 /media/source/kernel-3.4.0/mediatek/preloader/out/main.o
 .text          0x00000000       0xbc /media/source/kernel-3.4.0/mediatek/preloader/out/memory_test.o
 .data          0x00000000        0x0 /media/source/kernel-3.4.0/mediatek/preloader/out/memory_test.o
 .bss           0x00000000        0x0 /media/source/kernel-3.4.0/mediatek/preloader/out/memory_test.o
 .text          0x00000000        0x0 /media/source/kernel-3.4.0/mediatek/preloader/out/mmc_common_inter.o
 .data          0x00000000        0x0 /media/source/kernel-3.4.0/mediatek/preloader/out/mmc_common_inter.o
 .bss           0x00000000        0x0 /media/source/kernel-3.4.0/mediatek/preloader/out/mmc_common_inter.o
 .note.GNU-stack
                0x00000000        0x0 /media/source/kernel-3.4.0/mediatek/preloader/out/mmc_common_inter.o
 .text          0x00000000        0x0 /media/source/kernel-3.4.0/mediatek/preloader/out/mmc_core.o
 .data          0x00000000        0x0 /media/source/kernel-3.4.0/mediatek/preloader/out/mmc_core.o
 .bss           0x00000000        0x0 /media/source/kernel-3.4.0/mediatek/preloader/out/mmc_core.o
 .text.mmc_set_write_prot
                0x00000000       0x50 /media/source/kernel-3.4.0/mediatek/preloader/out/mmc_core.o
 .text.mmc_clr_write_prot
                0x00000000       0x50 /media/source/kernel-3.4.0/mediatek/preloader/out/mmc_core.o
 .text.mmc_send_write_prot
                0x00000000       0xa0 /media/source/kernel-3.4.0/mediatek/preloader/out/mmc_core.o
 .text.mmc_send_write_prot_type
                0x00000000       0xa0 /media/source/kernel-3.4.0/mediatek/preloader/out/mmc_core.o
 .text.mmc_erase_start
                0x00000000       0x84 /media/source/kernel-3.4.0/mediatek/preloader/out/mmc_core.o
 .text.mmc_erase_end
                0x00000000       0x84 /media/source/kernel-3.4.0/mediatek/preloader/out/mmc_core.o
 .text.mmc_erase
                0x00000000       0xe4 /media/source/kernel-3.4.0/mediatek/preloader/out/mmc_core.o
 .text.mmc_get_wpg_size
                0x00000000       0x60 /media/source/kernel-3.4.0/mediatek/preloader/out/mmc_core.o
 .text.mmc_set_ext_csd
                0x00000000       0x88 /media/source/kernel-3.4.0/mediatek/preloader/out/mmc_core.o
 .text.mmc_set_erase_grp_def
                0x00000000       0x3c /media/source/kernel-3.4.0/mediatek/preloader/out/mmc_core.o
 .text.mmc_set_gp_size
                0x00000000       0xb0 /media/source/kernel-3.4.0/mediatek/preloader/out/mmc_core.o
 .text.mmc_set_enh_size
                0x00000000       0x94 /media/source/kernel-3.4.0/mediatek/preloader/out/mmc_core.o
 .text.mmc_set_enh_start_addr
                0x00000000       0x80 /media/source/kernel-3.4.0/mediatek/preloader/out/mmc_core.o
 .text.mmc_set_boot_bus
                0x00000000       0x38 /media/source/kernel-3.4.0/mediatek/preloader/out/mmc_core.o
 .text.mmc_set_part_config
                0x00000000       0x2c /media/source/kernel-3.4.0/mediatek/preloader/out/mmc_core.o
 .text.mmc_set_part_attr
                0x00000000       0x50 /media/source/kernel-3.4.0/mediatek/preloader/out/mmc_core.o
 .text.mmc_set_part_compl
                0x00000000       0x2c /media/source/kernel-3.4.0/mediatek/preloader/out/mmc_core.o
 .rodata        0x00000000        0x4 /media/source/kernel-3.4.0/mediatek/preloader/out/mmc_core.o
 .note.GNU-stack
                0x00000000        0x0 /media/source/kernel-3.4.0/mediatek/preloader/out/mmc_core.o
 .text          0x00000000        0x0 /media/source/kernel-3.4.0/mediatek/preloader/out/mmc_test.o
 .data          0x00000000        0x0 /media/source/kernel-3.4.0/mediatek/preloader/out/mmc_test.o
 .bss           0x00000000        0x0 /media/source/kernel-3.4.0/mediatek/preloader/out/mmc_test.o
 .note.GNU-stack
                0x00000000        0x0 /media/source/kernel-3.4.0/mediatek/preloader/out/mmc_test.o
 .text          0x00000000        0x0 /media/source/kernel-3.4.0/mediatek/preloader/out/msdc.o
 .data          0x00000000        0x0 /media/source/kernel-3.4.0/mediatek/preloader/out/msdc.o
 .bss           0x00000000        0x0 /media/source/kernel-3.4.0/mediatek/preloader/out/msdc.o
 .text.msdc_dump_card_status
                0x00000000        0x4 /media/source/kernel-3.4.0/mediatek/preloader/out/msdc.o
 .text.msdc_dump_ocr_reg
                0x00000000        0x4 /media/source/kernel-3.4.0/mediatek/preloader/out/msdc.o
 .text.msdc_dump_io_resp
                0x00000000        0x4 /media/source/kernel-3.4.0/mediatek/preloader/out/msdc.o
 .text.msdc_dump_rca_resp
                0x00000000        0x4 /media/source/kernel-3.4.0/mediatek/preloader/out/msdc.o
 .text.msdc_intr_mask
                0x00000000       0x14 /media/source/kernel-3.4.0/mediatek/preloader/out/msdc.o
 .note.GNU-stack
                0x00000000        0x0 /media/source/kernel-3.4.0/mediatek/preloader/out/msdc.o
 .text          0x00000000        0x0 /media/source/kernel-3.4.0/mediatek/preloader/out/msdc_utils.o
 .data          0x00000000        0x0 /media/source/kernel-3.4.0/mediatek/preloader/out/msdc_utils.o
 .bss           0x00000000        0x0 /media/source/kernel-3.4.0/mediatek/preloader/out/msdc_utils.o
 .text.msdc_ntohl
                0x00000000       0x2c /media/source/kernel-3.4.0/mediatek/preloader/out/msdc_utils.o
 .note.GNU-stack
                0x00000000        0x0 /media/source/kernel-3.4.0/mediatek/preloader/out/msdc_utils.o
 .text          0x00000000        0x0 /media/source/kernel-3.4.0/mediatek/preloader/out/mt6577_memory.o
 .data          0x00000000        0x0 /media/source/kernel-3.4.0/mediatek/preloader/out/mt6577_memory.o
 .bss           0x00000000        0x0 /media/source/kernel-3.4.0/mediatek/preloader/out/mt6577_memory.o
 .note.GNU-stack
                0x00000000        0x0 /media/source/kernel-3.4.0/mediatek/preloader/out/mt6577_memory.o
 .text          0x00000000        0x0 /media/source/kernel-3.4.0/mediatek/preloader/out/mt_cpu_power.o
 .data          0x00000000        0x0 /media/source/kernel-3.4.0/mediatek/preloader/out/mt_cpu_power.o
 .bss           0x00000000        0x0 /media/source/kernel-3.4.0/mediatek/preloader/out/mt_cpu_power.o
 .note.GNU-stack
                0x00000000        0x0 /media/source/kernel-3.4.0/mediatek/preloader/out/mt_cpu_power.o
 .text          0x00000000        0x0 /media/source/kernel-3.4.0/mediatek/preloader/out/mt_emi.o
 .data          0x00000000        0x0 /media/source/kernel-3.4.0/mediatek/preloader/out/mt_emi.o
 .bss           0x00000000        0x0 /media/source/kernel-3.4.0/mediatek/preloader/out/mt_emi.o
 .note.GNU-stack
                0x00000000        0x0 /media/source/kernel-3.4.0/mediatek/preloader/out/mt_emi.o
 .text          0x00000000        0x0 /media/source/kernel-3.4.0/mediatek/preloader/out/mt_i2c.o
 .data          0x00000000        0x0 /media/source/kernel-3.4.0/mediatek/preloader/out/mt_i2c.o
 .bss           0x00000000        0x0 /media/source/kernel-3.4.0/mediatek/preloader/out/mt_i2c.o
 .text.i2c_v1_deinit
                0x00000000       0x2c /media/source/kernel-3.4.0/mediatek/preloader/out/mt_i2c.o
 .note.GNU-stack
                0x00000000        0x0 /media/source/kernel-3.4.0/mediatek/preloader/out/mt_i2c.o
 .text          0x00000000        0x0 /media/source/kernel-3.4.0/mediatek/preloader/out/mtk_key.o
 .data          0x00000000        0x0 /media/source/kernel-3.4.0/mediatek/preloader/out/mtk_key.o
 .bss           0x00000000        0x0 /media/source/kernel-3.4.0/mediatek/preloader/out/mtk_key.o
 .note.GNU-stack
                0x00000000        0x0 /media/source/kernel-3.4.0/mediatek/preloader/out/mtk_key.o
 .text          0x00000000        0x0 /media/source/kernel-3.4.0/mediatek/preloader/out/mtk_timer.o
 .data          0x00000000        0x0 /media/source/kernel-3.4.0/mediatek/preloader/out/mtk_timer.o
 .bss           0x00000000        0x0 /media/source/kernel-3.4.0/mediatek/preloader/out/mtk_timer.o
 .text.gpt_busy_wait_ms
                0x00000000       0x6c /media/source/kernel-3.4.0/mediatek/preloader/out/mtk_timer.o
 .note.GNU-stack
                0x00000000        0x0 /media/source/kernel-3.4.0/mediatek/preloader/out/mtk_timer.o
 .text          0x00000000        0x0 /media/source/kernel-3.4.0/mediatek/preloader/out/mtk_wdt.o
 .data          0x00000000        0x0 /media/source/kernel-3.4.0/mediatek/preloader/out/mtk_wdt.o
 .bss           0x00000000        0x0 /media/source/kernel-3.4.0/mediatek/preloader/out/mtk_wdt.o
 .text.mtk_wdt_sw_reset
                0x00000000       0x34 /media/source/kernel-3.4.0/mediatek/preloader/out/mtk_wdt.o
 .text.mtk_is_rgu_trigger_reset
                0x00000000       0x1c /media/source/kernel-3.4.0/mediatek/preloader/out/mtk_wdt.o
 .note.GNU-stack
                0x00000000        0x0 /media/source/kernel-3.4.0/mediatek/preloader/out/mtk_wdt.o
 .text          0x00000000        0x0 /media/source/kernel-3.4.0/mediatek/preloader/out/mt_pmic6329.o
 .data          0x00000000        0x0 /media/source/kernel-3.4.0/mediatek/preloader/out/mt_pmic6329.o
 .bss           0x00000000        0x0 /media/source/kernel-3.4.0/mediatek/preloader/out/mt_pmic6329.o
 .text.pmic6329_int_ctrl_enable
                0x00000000       0xbc /media/source/kernel-3.4.0/mediatek/preloader/out/mt_pmic6329.o
 .text.pmic6329_get_version
                0x00000000       0xac /media/source/kernel-3.4.0/mediatek/preloader/out/mt_pmic6329.o
 .text.spk_amp_offset_sw_trim
                0x00000000      0x504 /media/source/kernel-3.4.0/mediatek/preloader/out/mt_pmic6329.o
 .data.t_d1     0x00000000        0x4 /media/source/kernel-3.4.0/mediatek/preloader/out/mt_pmic6329.o
 .data.t_d3     0x00000000        0x4 /media/source/kernel-3.4.0/mediatek/preloader/out/mt_pmic6329.o
 .data.t_d4     0x00000000        0x4 /media/source/kernel-3.4.0/mediatek/preloader/out/mt_pmic6329.o
 .data.read_times
                0x00000000        0x4 /media/source/kernel-3.4.0/mediatek/preloader/out/mt_pmic6329.o
 .bss.t_d2      0x00000000        0x4 /media/source/kernel-3.4.0/mediatek/preloader/out/mt_pmic6329.o
 .bss.t_d2_x    0x00000000        0x4 /media/source/kernel-3.4.0/mediatek/preloader/out/mt_pmic6329.o
 .note.GNU-stack
                0x00000000        0x0 /media/source/kernel-3.4.0/mediatek/preloader/out/mt_pmic6329.o
 .text          0x00000000        0x0 /media/source/kernel-3.4.0/mediatek/preloader/out/mt_rtc.o
 .data          0x00000000        0x0 /media/source/kernel-3.4.0/mediatek/preloader/out/mt_rtc.o
 .bss           0x00000000        0x0 /media/source/kernel-3.4.0/mediatek/preloader/out/mt_rtc.o
 .text.rtc_rdwr_uart_bits
                0x00000000       0x50 /media/source/kernel-3.4.0/mediatek/preloader/out/mt_rtc.o
 .note.GNU-stack
                0x00000000        0x0 /media/source/kernel-3.4.0/mediatek/preloader/out/mt_rtc.o
 .text          0x00000000        0x0 /media/source/kernel-3.4.0/mediatek/preloader/out/mt_usbd.o
 .data          0x00000000        0x0 /media/source/kernel-3.4.0/mediatek/preloader/out/mt_usbd.o
 .bss           0x00000000        0x0 /media/source/kernel-3.4.0/mediatek/preloader/out/mt_usbd.o
 .text.udc_disable
                0x00000000        0x4 /media/source/kernel-3.4.0/mediatek/preloader/out/mt_usbd.o
 .note.GNU-stack
                0x00000000        0x0 /media/source/kernel-3.4.0/mediatek/preloader/out/mt_usbd.o
 .text          0x00000000        0x0 /media/source/kernel-3.4.0/mediatek/preloader/out/mt_usbphy.o
 .data          0x00000000        0x0 /media/source/kernel-3.4.0/mediatek/preloader/out/mt_usbphy.o
 .bss           0x00000000        0x0 /media/source/kernel-3.4.0/mediatek/preloader/out/mt_usbphy.o
 .note.GNU-stack
                0x00000000        0x0 /media/source/kernel-3.4.0/mediatek/preloader/out/mt_usbphy.o
 .text          0x00000000        0x0 /media/source/kernel-3.4.0/mediatek/preloader/out/mt_usbtty.o
 .data          0x00000000        0x0 /media/source/kernel-3.4.0/mediatek/preloader/out/mt_usbtty.o
 .bss           0x00000000        0x0 /media/source/kernel-3.4.0/mediatek/preloader/out/mt_usbtty.o
 .text.mt_usbtty_tstc
                0x00000000       0x20 /media/source/kernel-3.4.0/mediatek/preloader/out/mt_usbtty.o
 .text.mt_usbtty_getc
                0x00000000       0x3c /media/source/kernel-3.4.0/mediatek/preloader/out/mt_usbtty.o
 .text.mt_usbtty_putc
                0x00000000       0x54 /media/source/kernel-3.4.0/mediatek/preloader/out/mt_usbtty.o
 .bss.serialstate
                0x00000000        0x2 /media/source/kernel-3.4.0/mediatek/preloader/out/mt_usbtty.o
 .note.GNU-stack
                0x00000000        0x0 /media/source/kernel-3.4.0/mediatek/preloader/out/mt_usbtty.o
 .text          0x00000000        0x0 /media/source/kernel-3.4.0/mediatek/preloader/out/nand_common_inter.o
 .data          0x00000000        0x0 /media/source/kernel-3.4.0/mediatek/preloader/out/nand_common_inter.o
 .bss           0x00000000        0x0 /media/source/kernel-3.4.0/mediatek/preloader/out/nand_common_inter.o
 .text.nand_init_device
                0x00000000       0xc0 /media/source/kernel-3.4.0/mediatek/preloader/out/nand_common_inter.o
 .text.Invert_Bits
                0x00000000       0x28 /media/source/kernel-3.4.0/mediatek/preloader/out/nand_common_inter.o
 .text.compare_page
                0x00000000       0xc8 /media/source/kernel-3.4.0/mediatek/preloader/out/nand_common_inter.o
 .text.empty_page
                0x00000000       0x30 /media/source/kernel-3.4.0/mediatek/preloader/out/nand_common_inter.o
 .text.nand_get_device_id
                0x00000000       0x48 /media/source/kernel-3.4.0/mediatek/preloader/out/nand_common_inter.o
 .text.nand_find_safe_block
                0x00000000      0x118 /media/source/kernel-3.4.0/mediatek/preloader/out/nand_common_inter.o
 .text.nand_read_data
                0x00000000       0x40 /media/source/kernel-3.4.0/mediatek/preloader/out/nand_common_inter.o
 .text.nand_bread
                0x00000000       0x48 /media/source/kernel-3.4.0/mediatek/preloader/out/nand_common_inter.o
 .text.nand_write_data
                0x00000000       0x5c /media/source/kernel-3.4.0/mediatek/preloader/out/nand_common_inter.o
 .text.__nand_ecc_test
                0x00000000      0x330 /media/source/kernel-3.4.0/mediatek/preloader/out/nand_common_inter.o
 .text.nand_ecc_test
                0x00000000       0x60 /media/source/kernel-3.4.0/mediatek/preloader/out/nand_common_inter.o
 .text.nand_bwrite
                0x00000000       0x48 /media/source/kernel-3.4.0/mediatek/preloader/out/nand_common_inter.o
 .text.nand_erase_data
                0x00000000      0x144 /media/source/kernel-3.4.0/mediatek/preloader/out/nand_common_inter.o
 .bss.Bad_Block_Table_init.1423
                0x00000000        0x1 /media/source/kernel-3.4.0/mediatek/preloader/out/nand_common_inter.o
 .bss.BLOCK_SIZE
                0x00000000        0x4 /media/source/kernel-3.4.0/mediatek/preloader/out/nand_common_inter.o
 .bss.g_nand_bdev
                0x00000000       0x28 /media/source/kernel-3.4.0/mediatek/preloader/out/nand_common_inter.o
 .rodata.str1.1
                0x00000000      0x2a9 /media/source/kernel-3.4.0/mediatek/preloader/out/nand_common_inter.o
 .bss.Bad_Block_Table
                0x00000000     0x2000 /media/source/kernel-3.4.0/mediatek/preloader/out/nand_common_inter.o
 .note.GNU-stack
                0x00000000        0x0 /media/source/kernel-3.4.0/mediatek/preloader/out/nand_common_inter.o
 .text          0x00000000        0x0 /media/source/kernel-3.4.0/mediatek/preloader/out/nand.o
 .data          0x00000000        0x0 /media/source/kernel-3.4.0/mediatek/preloader/out/nand.o
 .bss           0x00000000        0x0 /media/source/kernel-3.4.0/mediatek/preloader/out/nand.o
 .text.mtk_nand_status_ready
                0x00000000       0x34 /media/source/kernel-3.4.0/mediatek/preloader/out/nand.o
 .text.mtk_nand_read_byte
                0x00000000       0x2c /media/source/kernel-3.4.0/mediatek/preloader/out/nand.o
 .text.mtk_nand_read_page_data.isra.3
                0x00000000       0x84 /media/source/kernel-3.4.0/mediatek/preloader/out/nand.o
 .text.mtk_nand_write_page_data.isra.4
                0x00000000       0x54 /media/source/kernel-3.4.0/mediatek/preloader/out/nand.o
 .text.mtk_nand_check_bch_error.isra.5
                0x00000000       0xcc /media/source/kernel-3.4.0/mediatek/preloader/out/nand.o
 .text.LOGICAL_ADDR
                0x00000000       0x18 /media/source/kernel-3.4.0/mediatek/preloader/out/nand.o
 .text.BLOCK_ALIGN
                0x00000000       0x24 /media/source/kernel-3.4.0/mediatek/preloader/out/nand.o
 .text.mtk_nand_reset_descriptor
                0x00000000       0x50 /media/source/kernel-3.4.0/mediatek/preloader/out/nand.o
 .text.get_device_info
                0x00000000      0x10c /media/source/kernel-3.4.0/mediatek/preloader/out/nand.o
 .text.mtk_nand_reset
                0x00000000       0xd8 /media/source/kernel-3.4.0/mediatek/preloader/out/nand.o
 .text.mtk_nand_read_status
                0x00000000      0x138 /media/source/kernel-3.4.0/mediatek/preloader/out/nand.o
 .text.mtk_nand_ready_for_write
                0x00000000      0x13c /media/source/kernel-3.4.0/mediatek/preloader/out/nand.o
 .text.mtk_nand_ready_for_read
                0x00000000      0x160 /media/source/kernel-3.4.0/mediatek/preloader/out/nand.o
 .text.mtk_nand_command_bp.part.6
                0x00000000       0xc8 /media/source/kernel-3.4.0/mediatek/preloader/out/nand.o
 .text.getflashid
                0x00000000       0x7c /media/source/kernel-3.4.0/mediatek/preloader/out/nand.o
 .text.mtk_nand_init
                0x00000000      0x590 /media/source/kernel-3.4.0/mediatek/preloader/out/nand.o
 .text.mtk_nand_read_page_hw
                0x00000000      0x16c /media/source/kernel-3.4.0/mediatek/preloader/out/nand.o
 .text.mtk_nand_read_page_hwecc
                0x00000000       0xe4 /media/source/kernel-3.4.0/mediatek/preloader/out/nand.o
 .text.mtk_nand_write_page_hw
                0x00000000      0x1b0 /media/source/kernel-3.4.0/mediatek/preloader/out/nand.o
 .text.mtk_nand_write_page_hwecc
                0x00000000      0x17c /media/source/kernel-3.4.0/mediatek/preloader/out/nand.o
 .text.nand_block_bad_hw
                0x00000000      0x1c4 /media/source/kernel-3.4.0/mediatek/preloader/out/nand.o
 .text.nand_block_bad
                0x00000000       0x64 /media/source/kernel-3.4.0/mediatek/preloader/out/nand.o
 .text.mark_block_bad_hw
                0x00000000      0x1b4 /media/source/kernel-3.4.0/mediatek/preloader/out/nand.o
 .text.mark_block_bad
                0x00000000       0x2c /media/source/kernel-3.4.0/mediatek/preloader/out/nand.o
 .text.mtk_nand_erase_hw
                0x00000000       0xcc /media/source/kernel-3.4.0/mediatek/preloader/out/nand.o
 .text.mtk_nand_erase
                0x00000000       0x6c /media/source/kernel-3.4.0/mediatek/preloader/out/nand.o
 .text.mtk_nand_wait_for_finish
                0x00000000       0x1c /media/source/kernel-3.4.0/mediatek/preloader/out/nand.o
 .bss.g_kCMD    0x00000000       0x50 /media/source/kernel-3.4.0/mediatek/preloader/out/nand.o
 .bss.nand_dev_id
                0x00000000        0x4 /media/source/kernel-3.4.0/mediatek/preloader/out/nand.o
 .data.rel.local.nand_manuf_ids
                0x00000000       0x50 /media/source/kernel-3.4.0/mediatek/preloader/out/nand.o
 .data.rel.local.nand_flash_ids
                0x00000000      0x210 /media/source/kernel-3.4.0/mediatek/preloader/out/nand.o
 .bss.g_bInitDone
                0x00000000        0x1 /media/source/kernel-3.4.0/mediatek/preloader/out/nand.o
 .data.g_bHwEcc
                0x00000000        0x1 /media/source/kernel-3.4.0/mediatek/preloader/out/nand.o
 .data.nand_oob_16
                0x00000000      0x148 /media/source/kernel-3.4.0/mediatek/preloader/out/nand.o
 .bss.g_dev_vfunc
                0x00000000       0x20 /media/source/kernel-3.4.0/mediatek/preloader/out/nand.o
 .bss.nfi_buf   0x00000000        0x4 /media/source/kernel-3.4.0/mediatek/preloader/out/nand.o
 .rodata.gen_FlashTable
                0x00000000       0xdc /media/source/kernel-3.4.0/mediatek/preloader/out/nand.o
 .rodata.str1.1
                0x00000000      0x3b4 /media/source/kernel-3.4.0/mediatek/preloader/out/nand.o
 .bss.gdevice_info
                0x00000000        0x8 /media/source/kernel-3.4.0/mediatek/preloader/out/nand.o
 .bss.ext_id1   0x00000000        0x1 /media/source/kernel-3.4.0/mediatek/preloader/out/nand.o
 .bss.ext_id2   0x00000000        0x1 /media/source/kernel-3.4.0/mediatek/preloader/out/nand.o
 .bss.ext_id3   0x00000000        0x1 /media/source/kernel-3.4.0/mediatek/preloader/out/nand.o
 .bss.g_u4ChipVer
                0x00000000        0x4 /media/source/kernel-3.4.0/mediatek/preloader/out/nand.o
 .data.nand_oob_128
                0x00000000      0x148 /media/source/kernel-3.4.0/mediatek/preloader/out/nand.o
 .rodata.CSWTCH.44
                0x00000000        0x5 /media/source/kernel-3.4.0/mediatek/preloader/out/nand.o
 .bss.g_nand_chip
                0x00000000       0x3c /media/source/kernel-3.4.0/mediatek/preloader/out/nand.o
 .bss.g_nand_spare
                0x00000000       0x80 /media/source/kernel-3.4.0/mediatek/preloader/out/nand.o
 .bss.nand_maf_id
                0x00000000        0x4 /media/source/kernel-3.4.0/mediatek/preloader/out/nand.o
 .bss.devinfo   0x00000000       0x2c /media/source/kernel-3.4.0/mediatek/preloader/out/nand.o
 .bss.nand_oob  0x00000000        0x4 /media/source/kernel-3.4.0/mediatek/preloader/out/nand.o
 .data.nand_oob_64
                0x00000000      0x148 /media/source/kernel-3.4.0/mediatek/preloader/out/nand.o
 .note.GNU-stack
                0x00000000        0x0 /media/source/kernel-3.4.0/mediatek/preloader/out/nand.o
 .text          0x00000000        0x0 /media/source/kernel-3.4.0/mediatek/preloader/out/partition_mt.o
 .data          0x00000000        0x0 /media/source/kernel-3.4.0/mediatek/preloader/out/partition_mt.o
 .bss           0x00000000        0x0 /media/source/kernel-3.4.0/mediatek/preloader/out/partition_mt.o
 .text.find_empty_page_from_top
                0x00000000      0x1a0 /media/source/kernel-3.4.0/mediatek/preloader/out/partition_mt.o
 .text.find_mirror_pt_from_bottom
                0x00000000      0x168 /media/source/kernel-3.4.0/mediatek/preloader/out/partition_mt.o
 .text.new_part_tab
                0x00000000      0x47c /media/source/kernel-3.4.0/mediatek/preloader/out/partition_mt.o
 .text.update_part_tab
                0x00000000      0x31c /media/source/kernel-3.4.0/mediatek/preloader/out/partition_mt.o
 .bss.sig_buf   0x00000000        0x4 /media/source/kernel-3.4.0/mediatek/preloader/out/partition_mt.o
 .bss.pi        0x00000000        0x4 /media/source/kernel-3.4.0/mediatek/preloader/out/partition_mt.o
 .bss.page_buf  0x00000000     0x1080 /media/source/kernel-3.4.0/mediatek/preloader/out/partition_mt.o
 .note.GNU-stack
                0x00000000        0x0 /media/source/kernel-3.4.0/mediatek/preloader/out/partition_mt.o
 .text          0x00000000        0x0 /media/source/kernel-3.4.0/mediatek/preloader/out/part.o
 .data          0x00000000        0x0 /media/source/kernel-3.4.0/mediatek/preloader/out/part.o
 .bss           0x00000000        0x0 /media/source/kernel-3.4.0/mediatek/preloader/out/part.o
 .note.GNU-stack
                0x00000000        0x0 /media/source/kernel-3.4.0/mediatek/preloader/out/part.o
 .text          0x00000000        0x0 /media/source/kernel-3.4.0/mediatek/preloader/out/platform.o
 .data          0x00000000        0x0 /media/source/kernel-3.4.0/mediatek/preloader/out/platform.o
 .bss           0x00000000        0x0 /media/source/kernel-3.4.0/mediatek/preloader/out/platform.o
 .bss.g_boot_dev
                0x00000000       0x20 /media/source/kernel-3.4.0/mediatek/preloader/out/platform.o
 .note.GNU-stack
                0x00000000        0x0 /media/source/kernel-3.4.0/mediatek/preloader/out/platform.o
 .text          0x00000000        0x0 /media/source/kernel-3.4.0/mediatek/preloader/out/pll.o
 .data          0x00000000        0x0 /media/source/kernel-3.4.0/mediatek/preloader/out/pll.o
 .bss           0x00000000        0x0 /media/source/kernel-3.4.0/mediatek/preloader/out/pll.o
 .text.mt_mode_switch
                0x00000000       0x7c /media/source/kernel-3.4.0/mediatek/preloader/out/pll.o
 .note.GNU-stack
                0x00000000        0x0 /media/source/kernel-3.4.0/mediatek/preloader/out/pll.o
 .text          0x00000000        0x0 /media/source/kernel-3.4.0/mediatek/preloader/out/print.o
 .data          0x00000000        0x0 /media/source/kernel-3.4.0/mediatek/preloader/out/print.o
 .bss           0x00000000        0x0 /media/source/kernel-3.4.0/mediatek/preloader/out/print.o
 .note.GNU-stack
                0x00000000        0x0 /media/source/kernel-3.4.0/mediatek/preloader/out/print.o
 .text          0x00000000        0x0 /media/source/kernel-3.4.0/mediatek/preloader/out/sec_auth.o
 .data          0x00000000        0x0 /media/source/kernel-3.4.0/mediatek/preloader/out/sec_auth.o
 .bss           0x00000000        0x0 /media/source/kernel-3.4.0/mediatek/preloader/out/sec_auth.o
 .note.GNU-stack
                0x00000000        0x0 /media/source/kernel-3.4.0/mediatek/preloader/out/sec_auth.o
 .text          0x00000000        0x0 /media/source/kernel-3.4.0/mediatek/preloader/out/sec_boot.o
 .data          0x00000000        0x0 /media/source/kernel-3.4.0/mediatek/preloader/out/sec_boot.o
 .bss           0x00000000        0x0 /media/source/kernel-3.4.0/mediatek/preloader/out/sec_boot.o
 .note.GNU-stack
                0x00000000        0x0 /media/source/kernel-3.4.0/mediatek/preloader/out/sec_boot.o
 .text          0x00000000        0x0 /media/source/kernel-3.4.0/mediatek/preloader/out/sec_ctrl.o
 .data          0x00000000        0x0 /media/source/kernel-3.4.0/mediatek/preloader/out/sec_ctrl.o
 .bss           0x00000000        0x0 /media/source/kernel-3.4.0/mediatek/preloader/out/sec_ctrl.o
 .note.GNU-stack
                0x00000000        0x0 /media/source/kernel-3.4.0/mediatek/preloader/out/sec_ctrl.o
 .text          0x00000000        0x0 /media/source/kernel-3.4.0/mediatek/preloader/out/sec_flashtool_cfg.o
 .data          0x00000000        0x0 /media/source/kernel-3.4.0/mediatek/preloader/out/sec_flashtool_cfg.o
 .bss           0x00000000        0x0 /media/source/kernel-3.4.0/mediatek/preloader/out/sec_flashtool_cfg.o
 .note.GNU-stack
                0x00000000        0x0 /media/source/kernel-3.4.0/mediatek/preloader/out/sec_flashtool_cfg.o
 .text          0x00000000        0x0 /media/source/kernel-3.4.0/mediatek/preloader/out/sec_key.o
 .data          0x00000000        0x0 /media/source/kernel-3.4.0/mediatek/preloader/out/sec_key.o
 .bss           0x00000000        0x0 /media/source/kernel-3.4.0/mediatek/preloader/out/sec_key.o
 .note.GNU-stack
                0x00000000        0x0 /media/source/kernel-3.4.0/mediatek/preloader/out/sec_key.o
 .text          0x00000000        0x0 /media/source/kernel-3.4.0/mediatek/preloader/out/sec.o
 .data          0x00000000        0x0 /media/source/kernel-3.4.0/mediatek/preloader/out/sec.o
 .bss           0x00000000        0x0 /media/source/kernel-3.4.0/mediatek/preloader/out/sec.o
 .note.GNU-stack
                0x00000000        0x0 /media/source/kernel-3.4.0/mediatek/preloader/out/sec.o
 .text          0x00000000        0x0 /media/source/kernel-3.4.0/mediatek/preloader/out/sec_region.o
 .data          0x00000000        0x0 /media/source/kernel-3.4.0/mediatek/preloader/out/sec_region.o
 .bss           0x00000000        0x0 /media/source/kernel-3.4.0/mediatek/preloader/out/sec_region.o
 .text.da_region_check
                0x00000000       0x20 /media/source/kernel-3.4.0/mediatek/preloader/out/sec_region.o
 .note.GNU-stack
                0x00000000        0x0 /media/source/kernel-3.4.0/mediatek/preloader/out/sec_region.o
 .text          0x00000000        0x0 /media/source/kernel-3.4.0/mediatek/preloader/out/sec_rom_info.o
 .data          0x00000000        0x0 /media/source/kernel-3.4.0/mediatek/preloader/out/sec_rom_info.o
 .bss           0x00000000        0x0 /media/source/kernel-3.4.0/mediatek/preloader/out/sec_rom_info.o
 .note.GNU-stack
                0x00000000        0x0 /media/source/kernel-3.4.0/mediatek/preloader/out/sec_rom_info.o
 .text          0x00000000        0x0 /media/source/kernel-3.4.0/mediatek/preloader/out/sec_secroimg.o
 .data          0x00000000        0x0 /media/source/kernel-3.4.0/mediatek/preloader/out/sec_secroimg.o
 .bss           0x00000000        0x0 /media/source/kernel-3.4.0/mediatek/preloader/out/sec_secroimg.o
 .note.GNU-stack
                0x00000000        0x0 /media/source/kernel-3.4.0/mediatek/preloader/out/sec_secroimg.o
 .text          0x00000000        0x0 /media/source/kernel-3.4.0/mediatek/preloader/out/sec_util.o
 .data          0x00000000        0x0 /media/source/kernel-3.4.0/mediatek/preloader/out/sec_util.o
 .bss           0x00000000        0x0 /media/source/kernel-3.4.0/mediatek/preloader/out/sec_util.o
 .note.GNU-stack
                0x00000000        0x0 /media/source/kernel-3.4.0/mediatek/preloader/out/sec_util.o
 .text          0x00000000        0x0 /media/source/kernel-3.4.0/mediatek/preloader/out/stdlib.o
 .data          0x00000000        0x0 /media/source/kernel-3.4.0/mediatek/preloader/out/stdlib.o
 .bss           0x00000000        0x0 /media/source/kernel-3.4.0/mediatek/preloader/out/stdlib.o
 .text.longjmperror
                0x00000000       0x20 /media/source/kernel-3.4.0/mediatek/preloader/out/stdlib.o
 .rodata.str1.1
                0x00000000        0xb /media/source/kernel-3.4.0/mediatek/preloader/out/stdlib.o
 .note.GNU-stack
                0x00000000        0x0 /media/source/kernel-3.4.0/mediatek/preloader/out/stdlib.o
 .text          0x00000000        0x0 /media/source/kernel-3.4.0/mediatek/preloader/out/string.o
 .data          0x00000000        0x0 /media/source/kernel-3.4.0/mediatek/preloader/out/string.o
 .bss           0x00000000        0x0 /media/source/kernel-3.4.0/mediatek/preloader/out/string.o
 .note.GNU-stack
                0x00000000        0x0 /media/source/kernel-3.4.0/mediatek/preloader/out/string.o
 .text          0x00000000        0x0 /media/source/kernel-3.4.0/mediatek/preloader/out/uart.o
 .data          0x00000000        0x0 /media/source/kernel-3.4.0/mediatek/preloader/out/uart.o
 .bss           0x00000000        0x0 /media/source/kernel-3.4.0/mediatek/preloader/out/uart.o
 .note.GNU-stack
                0x00000000        0x0 /media/source/kernel-3.4.0/mediatek/preloader/out/uart.o
 .text          0x00000000        0x0 /media/source/kernel-3.4.0/mediatek/platform/mt6577/preloader/src/SecLib.a(efuse.o)
 .data          0x00000000        0x0 /media/source/kernel-3.4.0/mediatek/platform/mt6577/preloader/src/SecLib.a(efuse.o)
 .bss           0x00000000        0x0 /media/source/kernel-3.4.0/mediatek/platform/mt6577/preloader/src/SecLib.a(efuse.o)
 .note.GNU-stack
                0x00000000        0x0 /media/source/kernel-3.4.0/mediatek/platform/mt6577/preloader/src/SecLib.a(efuse.o)
 .text          0x00000000        0x0 /media/source/kernel-3.4.0/mediatek/platform/mt6577/preloader/src/SecLib.a(meta.o)
 .data          0x00000000        0x0 /media/source/kernel-3.4.0/mediatek/platform/mt6577/preloader/src/SecLib.a(meta.o)
 .bss           0x00000000        0x0 /media/source/kernel-3.4.0/mediatek/platform/mt6577/preloader/src/SecLib.a(meta.o)
 .note.GNU-stack
                0x00000000        0x0 /media/source/kernel-3.4.0/mediatek/platform/mt6577/preloader/src/SecLib.a(meta.o)
 .text          0x00000000        0x0 /media/source/kernel-3.4.0/mediatek/platform/mt6577/preloader/src/SecLib.a(seclib_boot.o)
 .data          0x00000000        0x0 /media/source/kernel-3.4.0/mediatek/platform/mt6577/preloader/src/SecLib.a(seclib_boot.o)
 .bss           0x00000000        0x0 /media/source/kernel-3.4.0/mediatek/platform/mt6577/preloader/src/SecLib.a(seclib_boot.o)
 .text.seclib_image_info_update
                0x00000000        0x8 /media/source/kernel-3.4.0/mediatek/platform/mt6577/preloader/src/SecLib.a(seclib_boot.o)
 .text.seclib_image_info_add
                0x00000000        0x8 /media/source/kernel-3.4.0/mediatek/platform/mt6577/preloader/src/SecLib.a(seclib_boot.o)
 .note.GNU-stack
                0x00000000        0x0 /media/source/kernel-3.4.0/mediatek/platform/mt6577/preloader/src/SecLib.a(seclib_boot.o)
 .text          0x00000000        0x0 /media/source/kernel-3.4.0/mediatek/platform/mt6577/preloader/src/SecLib.a(seclib_dl.o)
 .data          0x00000000        0x0 /media/source/kernel-3.4.0/mediatek/platform/mt6577/preloader/src/SecLib.a(seclib_dl.o)
 .bss           0x00000000        0x0 /media/source/kernel-3.4.0/mediatek/platform/mt6577/preloader/src/SecLib.a(seclib_dl.o)
 .note.GNU-stack
                0x00000000        0x0 /media/source/kernel-3.4.0/mediatek/platform/mt6577/preloader/src/SecLib.a(seclib_dl.o)
 .text          0x00000000        0x0 /media/source/kernel-3.4.0/mediatek/platform/mt6577/preloader/src/SecLib.a(seclib_img_hash.o)
 .data          0x00000000        0x0 /media/source/kernel-3.4.0/mediatek/platform/mt6577/preloader/src/SecLib.a(seclib_img_hash.o)
 .bss           0x00000000        0x0 /media/source/kernel-3.4.0/mediatek/platform/mt6577/preloader/src/SecLib.a(seclib_img_hash.o)
 .note.GNU-stack
                0x00000000        0x0 /media/source/kernel-3.4.0/mediatek/platform/mt6577/preloader/src/SecLib.a(seclib_img_hash.o)
 .text          0x00000000        0x0 /media/source/kernel-3.4.0/mediatek/platform/mt6577/preloader/src/SecLib.a(seclib_img_verify.o)
 .data          0x00000000        0x0 /media/source/kernel-3.4.0/mediatek/platform/mt6577/preloader/src/SecLib.a(seclib_img_verify.o)
 .bss           0x00000000        0x0 /media/source/kernel-3.4.0/mediatek/platform/mt6577/preloader/src/SecLib.a(seclib_img_verify.o)
 .note.GNU-stack
                0x00000000        0x0 /media/source/kernel-3.4.0/mediatek/platform/mt6577/preloader/src/SecLib.a(seclib_img_verify.o)
 .text          0x00000000        0x0 /media/source/kernel-3.4.0/mediatek/platform/mt6577/preloader/src/SecLib.a(seclib_key.o)
 .data          0x00000000        0x0 /media/source/kernel-3.4.0/mediatek/platform/mt6577/preloader/src/SecLib.a(seclib_key.o)
 .bss           0x00000000        0x0 /media/source/kernel-3.4.0/mediatek/platform/mt6577/preloader/src/SecLib.a(seclib_key.o)
 .note.GNU-stack
                0x00000000        0x0 /media/source/kernel-3.4.0/mediatek/platform/mt6577/preloader/src/SecLib.a(seclib_key.o)
 .text          0x00000000        0x0 /media/source/kernel-3.4.0/mediatek/platform/mt6577/preloader/src/SecLib.a(seclib.o)
 .data          0x00000000        0x0 /media/source/kernel-3.4.0/mediatek/platform/mt6577/preloader/src/SecLib.a(seclib.o)
 .bss           0x00000000        0x0 /media/source/kernel-3.4.0/mediatek/platform/mt6577/preloader/src/SecLib.a(seclib.o)
 .note.GNU-stack
                0x00000000        0x0 /media/source/kernel-3.4.0/mediatek/platform/mt6577/preloader/src/SecLib.a(seclib.o)
 .text          0x00000000        0x0 /media/source/kernel-3.4.0/mediatek/platform/mt6577/preloader/src/SecLib.a(seclib_region.o)
 .data          0x00000000        0x0 /media/source/kernel-3.4.0/mediatek/platform/mt6577/preloader/src/SecLib.a(seclib_region.o)
 .bss           0x00000000        0x0 /media/source/kernel-3.4.0/mediatek/platform/mt6577/preloader/src/SecLib.a(seclib_region.o)
 .note.GNU-stack
                0x00000000        0x0 /media/source/kernel-3.4.0/mediatek/platform/mt6577/preloader/src/SecLib.a(seclib_region.o)
 .text          0x00000000        0x0 /media/source/kernel-3.4.0/mediatek/platform/mt6577/preloader/src/SecLib.a(seclib_secroimg.o)
 .data          0x00000000        0x0 /media/source/kernel-3.4.0/mediatek/platform/mt6577/preloader/src/SecLib.a(seclib_secroimg.o)
 .bss           0x00000000        0x0 /media/source/kernel-3.4.0/mediatek/platform/mt6577/preloader/src/SecLib.a(seclib_secroimg.o)
 .note.GNU-stack
                0x00000000        0x0 /media/source/kernel-3.4.0/mediatek/platform/mt6577/preloader/src/SecLib.a(seclib_secroimg.o)
 .text          0x00000000        0x0 /media/source/kernel-3.4.0/mediatek/platform/mt6577/preloader/src/SecLib.a(seclib_sej_export.o)
 .data          0x00000000        0x0 /media/source/kernel-3.4.0/mediatek/platform/mt6577/preloader/src/SecLib.a(seclib_sej_export.o)
 .bss           0x00000000        0x0 /media/source/kernel-3.4.0/mediatek/platform/mt6577/preloader/src/SecLib.a(seclib_sej_export.o)
 .text.sp_sej_deinit
                0x00000000        0x4 /media/source/kernel-3.4.0/mediatek/platform/mt6577/preloader/src/SecLib.a(seclib_sej_export.o)
 .note.GNU-stack
                0x00000000        0x0 /media/source/kernel-3.4.0/mediatek/platform/mt6577/preloader/src/SecLib.a(seclib_sej_export.o)
 .text          0x00000000        0x0 /media/source/kernel-3.4.0/mediatek/platform/mt6577/preloader/src/SecLib.a(seclib_util.o)
 .data          0x00000000        0x0 /media/source/kernel-3.4.0/mediatek/platform/mt6577/preloader/src/SecLib.a(seclib_util.o)
 .bss           0x00000000        0x0 /media/source/kernel-3.4.0/mediatek/platform/mt6577/preloader/src/SecLib.a(seclib_util.o)
 .note.GNU-stack
                0x00000000        0x0 /media/source/kernel-3.4.0/mediatek/platform/mt6577/preloader/src/SecLib.a(seclib_util.o)
 .text          0x00000000        0x0 /media/source/kernel-3.4.0/mediatek/platform/mt6577/preloader/src/SecLib.a(sej_hk.o)
 .data          0x00000000        0x0 /media/source/kernel-3.4.0/mediatek/platform/mt6577/preloader/src/SecLib.a(sej_hk.o)
 .bss           0x00000000        0x0 /media/source/kernel-3.4.0/mediatek/platform/mt6577/preloader/src/SecLib.a(sej_hk.o)
 .rodata.g_AC_BOOTROM_SWOTP
                0x00000000       0x20 /media/source/kernel-3.4.0/mediatek/platform/mt6577/preloader/src/SecLib.a(sej_hk.o)
 .note.GNU-stack
                0x00000000        0x0 /media/source/kernel-3.4.0/mediatek/platform/mt6577/preloader/src/SecLib.a(sej_hk.o)
 .text          0x00000000        0x0 /media/source/kernel-3.4.0/mediatek/platform/mt6577/preloader/src/SecLib.a(sej_sk.o)
 .data          0x00000000        0x0 /media/source/kernel-3.4.0/mediatek/platform/mt6577/preloader/src/SecLib.a(sej_sk.o)
 .bss           0x00000000        0x0 /media/source/kernel-3.4.0/mediatek/platform/mt6577/preloader/src/SecLib.a(sej_sk.o)
 .note.GNU-stack
                0x00000000        0x0 /media/source/kernel-3.4.0/mediatek/platform/mt6577/preloader/src/SecLib.a(sej_sk.o)
 .text          0x00000000        0x0 /media/source/kernel-3.4.0/mediatek/platform/mt6577/preloader/src/SecLib.a(sha1.o)
 .data          0x00000000        0x0 /media/source/kernel-3.4.0/mediatek/platform/mt6577/preloader/src/SecLib.a(sha1.o)
 .bss           0x00000000        0x0 /media/source/kernel-3.4.0/mediatek/platform/mt6577/preloader/src/SecLib.a(sha1.o)
 .note.GNU-stack
                0x00000000        0x0 /media/source/kernel-3.4.0/mediatek/platform/mt6577/preloader/src/SecLib.a(sha1.o)
 .text          0x00000000        0x0 /media/source/kernel-3.4.0/mediatek/platform/mt6577/preloader/src/SecLib.a(weak_auth.o)
 .data          0x00000000        0x0 /media/source/kernel-3.4.0/mediatek/platform/mt6577/preloader/src/SecLib.a(weak_auth.o)
 .bss           0x00000000        0x0 /media/source/kernel-3.4.0/mediatek/platform/mt6577/preloader/src/SecLib.a(weak_auth.o)
 .text.seclib_rsa_init
                0x00000000        0x8 /media/source/kernel-3.4.0/mediatek/platform/mt6577/preloader/src/SecLib.a(weak_auth.o)
 .note.GNU-stack
                0x00000000        0x0 /media/source/kernel-3.4.0/mediatek/platform/mt6577/preloader/src/SecLib.a(weak_auth.o)
 .text          0x00000000        0x0 /media/source/kernel-3.4.0/mediatek/platform/mt6577/preloader/src/SecLib.a(seccfg_crypto.o)
 .data          0x00000000        0x0 /media/source/kernel-3.4.0/mediatek/platform/mt6577/preloader/src/SecLib.a(seccfg_crypto.o)
 .bss           0x00000000        0x0 /media/source/kernel-3.4.0/mediatek/platform/mt6577/preloader/src/SecLib.a(seccfg_crypto.o)
 .note.GNU-stack
                0x00000000        0x0 /media/source/kernel-3.4.0/mediatek/platform/mt6577/preloader/src/SecLib.a(seccfg_crypto.o)
 .text          0x00000000        0x0 /media/source/kernel-3.4.0/mediatek/platform/mt6577/preloader/src/security/auth/DaVerifyLib.a(auth.o)
 .data          0x00000000        0x0 /media/source/kernel-3.4.0/mediatek/platform/mt6577/preloader/src/security/auth/DaVerifyLib.a(auth.o)
 .bss           0x00000000        0x0 /media/source/kernel-3.4.0/mediatek/platform/mt6577/preloader/src/security/auth/DaVerifyLib.a(auth.o)
 .note.GNU-stack
                0x00000000        0x0 /media/source/kernel-3.4.0/mediatek/platform/mt6577/preloader/src/security/auth/DaVerifyLib.a(auth.o)
 .text          0x00000000        0x0 /media/source/kernel-3.4.0/mediatek/platform/mt6577/preloader/src/security/auth/DaVerifyLib.a(bgn_io.o)
 .data          0x00000000        0x0 /media/source/kernel-3.4.0/mediatek/platform/mt6577/preloader/src/security/auth/DaVerifyLib.a(bgn_io.o)
 .bss           0x00000000        0x0 /media/source/kernel-3.4.0/mediatek/platform/mt6577/preloader/src/security/auth/DaVerifyLib.a(bgn_io.o)
 .note.GNU-stack
                0x00000000        0x0 /media/source/kernel-3.4.0/mediatek/platform/mt6577/preloader/src/security/auth/DaVerifyLib.a(bgn_io.o)
 .text          0x00000000        0x0 /media/source/kernel-3.4.0/mediatek/platform/mt6577/preloader/src/security/auth/DaVerifyLib.a(bgn_util.o)
 .data          0x00000000        0x0 /media/source/kernel-3.4.0/mediatek/platform/mt6577/preloader/src/security/auth/DaVerifyLib.a(bgn_util.o)
 .bss           0x00000000        0x0 /media/source/kernel-3.4.0/mediatek/platform/mt6577/preloader/src/security/auth/DaVerifyLib.a(bgn_util.o)
 .text.bgn_swap
                0x00000000       0x48 /media/source/kernel-3.4.0/mediatek/platform/mt6577/preloader/src/security/auth/DaVerifyLib.a(bgn_util.o)
 .text.bgn_lsb  0x00000000       0x54 /media/source/kernel-3.4.0/mediatek/platform/mt6577/preloader/src/security/auth/DaVerifyLib.a(bgn_util.o)
 .text.bgn_div_int
                0x00000000       0x40 /media/source/kernel-3.4.0/mediatek/platform/mt6577/preloader/src/security/auth/DaVerifyLib.a(bgn_util.o)
 .text.bgn_mod_int
                0x00000000       0xc8 /media/source/kernel-3.4.0/mediatek/platform/mt6577/preloader/src/security/auth/DaVerifyLib.a(bgn_util.o)
 .note.GNU-stack
                0x00000000        0x0 /media/source/kernel-3.4.0/mediatek/platform/mt6577/preloader/src/security/auth/DaVerifyLib.a(bgn_util.o)
 .text          0x00000000        0x0 /media/source/kernel-3.4.0/mediatek/platform/mt6577/preloader/src/security/auth/DaVerifyLib.a(rsa.o)
 .data          0x00000000        0x0 /media/source/kernel-3.4.0/mediatek/platform/mt6577/preloader/src/security/auth/DaVerifyLib.a(rsa.o)
 .bss           0x00000000        0x0 /media/source/kernel-3.4.0/mediatek/platform/mt6577/preloader/src/security/auth/DaVerifyLib.a(rsa.o)
 .text.rsa_init
                0x00000000       0x38 /media/source/kernel-3.4.0/mediatek/platform/mt6577/preloader/src/security/auth/DaVerifyLib.a(rsa.o)
 .text.rsa_free
                0x00000000       0x3c /media/source/kernel-3.4.0/mediatek/platform/mt6577/preloader/src/security/auth/DaVerifyLib.a(rsa.o)
 .bss.rsa_ci    0x00000000       0x80 /media/source/kernel-3.4.0/mediatek/platform/mt6577/preloader/src/security/auth/DaVerifyLib.a(rsa.o)
 .note.GNU-stack
                0x00000000        0x0 /media/source/kernel-3.4.0/mediatek/platform/mt6577/preloader/src/security/auth/DaVerifyLib.a(rsa.o)
 .text          0x00000000        0x0 /media/source/kernel-3.4.0/mediatek/platform/mt6577/preloader/src/security/auth/DaVerifyLib.a(stdlib.o)
 .data          0x00000000        0x0 /media/source/kernel-3.4.0/mediatek/platform/mt6577/preloader/src/security/auth/DaVerifyLib.a(stdlib.o)
 .bss           0x00000000        0x0 /media/source/kernel-3.4.0/mediatek/platform/mt6577/preloader/src/security/auth/DaVerifyLib.a(stdlib.o)
 .data.heap_start_addr
                0x00000000        0x4 /media/source/kernel-3.4.0/mediatek/platform/mt6577/preloader/src/security/auth/DaVerifyLib.a(stdlib.o)
 .note.GNU-stack
                0x00000000        0x0 /media/source/kernel-3.4.0/mediatek/platform/mt6577/preloader/src/security/auth/DaVerifyLib.a(stdlib.o)
 .text          0x00000000        0x0 /media/source/kernel-3.4.0/mediatek/platform/mt6577/preloader/src/security/auth/DaVerifyLib.a(bgn_core.o)
 .data          0x00000000        0x0 /media/source/kernel-3.4.0/mediatek/platform/mt6577/preloader/src/security/auth/DaVerifyLib.a(bgn_core.o)
 .bss           0x00000000        0x0 /media/source/kernel-3.4.0/mediatek/platform/mt6577/preloader/src/security/auth/DaVerifyLib.a(bgn_core.o)
 .note.GNU-stack
                0x00000000        0x0 /media/source/kernel-3.4.0/mediatek/platform/mt6577/preloader/src/security/auth/DaVerifyLib.a(bgn_core.o)
 .text          0x00000000        0x0 /media/source/kernel-3.4.0/mediatek/platform/mt6577/preloader/src/security/auth/DaVerifyLib.a(montg.o)
 .data          0x00000000        0x0 /media/source/kernel-3.4.0/mediatek/platform/mt6577/preloader/src/security/auth/DaVerifyLib.a(montg.o)
 .bss           0x00000000        0x0 /media/source/kernel-3.4.0/mediatek/platform/mt6577/preloader/src/security/auth/DaVerifyLib.a(montg.o)
 .note.GNU-stack
                0x00000000        0x0 /media/source/kernel-3.4.0/mediatek/platform/mt6577/preloader/src/security/auth/DaVerifyLib.a(montg.o)

Memory map

 ** file header
                0xc200f000       0x34
 ** segment headers
                0xc200f034       0xa0

.start          0xc2010000      0x1bc
 .text.start    0xffffffffffffffff      0x1bc /media/source/kernel-3.4.0/mediatek/preloader/out/init.o
                0xc2010000                _start
                0xc20100c4                jump
                0xc20100d0                apmcu_icache_invalidate
                0xc20100dc                apmcu_dcache_invalidate
                0xc201012c                apmcu_dcache_clean_invalidate
                0xc201017c                apmcu_dsb
                0xc2010188                apmcu_disable_dcache
                0xc2010198                apmcu_disable_icache

.rom_info       0xc20101fc      0x3c0
 .data.rom_info
                0xc20101fc      0x3c0 /media/source/kernel-3.4.0/mediatek/preloader/out/sec_rom_info.o
                0xc20101fc                g_ROM_INFO

.text           0xc20105c0      0x354
 .text          0xc20105c0      0x140 /media/source/kernel-3.4.0/mediatek/preloader/out/eabi_idiv.o
                0xc20105c0                __divsi3
                0xc20105c0                __aeabi_idiv
 .text          0xc2010700       0xc8 /media/source/kernel-3.4.0/mediatek/preloader/out/eabi.o
                0xc2010700                __udivsi3
                0xc2010700                __aeabi_uidiv
                0xc2010798                __aeabi_uidivmod
                0xc20107b0                __aeabi_idivmod
 .text          0xffffffffffffffff      0x14c /media/source/kernel-3.4.0/mediatek/preloader/out/eabi_uldivmod.o
                0xc20107c8                __aeabi_uldivmod

.text.virt_to_phys_addr
                0xc2010914       0xe8
 .text.virt_to_phys_addr
                0xffffffffffffffff       0xe8 /media/source/kernel-3.4.0/mediatek/preloader/out/addr_trans.o
                0xc2010914                virt_to_phys_addr

.text.blkdev_register
                0xc20109fc       0x4c
 .text.blkdev_register
                0xffffffffffffffff       0x4c /media/source/kernel-3.4.0/mediatek/preloader/out/blkdev.o
                0xc20109fc                blkdev_register

.text.blkdev_get
                0xc2010a48       0x30
 .text.blkdev_get
                0xffffffffffffffff       0x30 /media/source/kernel-3.4.0/mediatek/preloader/out/blkdev.o
                0xc2010a48                blkdev_get

.text.blkdev_read
                0xc2010a78      0x260
 .text.blkdev_read
                0xffffffffffffffff      0x260 /media/source/kernel-3.4.0/mediatek/preloader/out/blkdev.o
                0xc2010a78                blkdev_read

.text.blkdev_write
                0xc2010cd8      0x2b0
 .text.blkdev_write
                0xffffffffffffffff      0x2b0 /media/source/kernel-3.4.0/mediatek/preloader/out/blkdev.o
                0xc2010cd8                blkdev_write

.text.buf_input_init
                0xc2010f88       0x7c
 .text.buf_input_init
                0xffffffffffffffff       0x7c /media/source/kernel-3.4.0/mediatek/preloader/out/circbuf.o
                0xc2010f88                buf_input_init

.text.buf_output_init
                0xc2011004       0x7c
 .text.buf_output_init
                0xffffffffffffffff       0x7c /media/source/kernel-3.4.0/mediatek/preloader/out/circbuf.o
                0xc2011004                buf_output_init

.text.buf_pop   0xc2011080       0x68
 .text.buf_pop  0xffffffffffffffff       0x68 /media/source/kernel-3.4.0/mediatek/preloader/out/circbuf.o
                0xc2011080                buf_pop

.text.buf_push  0xc20110e8       0x4c
 .text.buf_push
                0xffffffffffffffff       0x4c /media/source/kernel-3.4.0/mediatek/preloader/out/circbuf.o
                0xc20110e8                buf_push

.text.cust_part_init
                0xc2011134        0x4
 .text.cust_part_init
                0xffffffffffffffff        0x4 /media/source/kernel-3.4.0/mediatek/preloader/out/cust_part.o
                0xc2011134                cust_part_init

.text.cust_part_tbl
                0xc2011138       0x10
 .text.cust_part_tbl
                0xffffffffffffffff       0x10 /media/source/kernel-3.4.0/mediatek/preloader/out/cust_part.o
                0xc2011138                cust_part_tbl

.text.uffs.part.0
                0xc2011148       0x48
 .text.uffs.part.0
                0xffffffffffffffff       0x48 /media/source/kernel-3.4.0/mediatek/preloader/out/device_apc.o

.text.device_APC_dom_setup
                0xc2011190       0x98
 .text.device_APC_dom_setup
                0xffffffffffffffff       0x98 /media/source/kernel-3.4.0/mediatek/preloader/out/device_apc.o
                0xc2011190                device_APC_dom_setup

.text.__div0    0xc2011228        0x4
 .text.__div0   0xffffffffffffffff        0x4 /media/source/kernel-3.4.0/mediatek/preloader/out/div0.o
                0xc2011228                __div0

.text.usbdl_put_word
                0xc201122c       0x34
 .text.usbdl_put_word
                0xffffffffffffffff       0x34 /media/source/kernel-3.4.0/mediatek/preloader/out/download.o

.text.usbdl_put_dword
                0xc2011260       0x44
 .text.usbdl_put_dword
                0xffffffffffffffff       0x44 /media/source/kernel-3.4.0/mediatek/preloader/out/download.o

.text.usbdl_get_dword
                0xc20112a4       0x5c
 .text.usbdl_get_dword
                0xffffffffffffffff       0x5c /media/source/kernel-3.4.0/mediatek/preloader/out/download.o

.text.usbdl_read16
                0xc2011300       0xbc
 .text.usbdl_read16
                0xffffffffffffffff       0xbc /media/source/kernel-3.4.0/mediatek/preloader/out/download.o

.text.usbdl_write16
                0xc20113bc       0xf8
 .text.usbdl_write16
                0xffffffffffffffff       0xf8 /media/source/kernel-3.4.0/mediatek/preloader/out/download.o

.text.usbdl_handler
                0xc20114b4      0x7d8
 .text.usbdl_handler
                0xffffffffffffffff      0x7d8 /media/source/kernel-3.4.0/mediatek/preloader/out/download.o
                0xc20114b4                usbdl_handler

.text.set_dq_input_delay
                0xc2011c8c      0x17c
 .text.set_dq_input_delay
                0xffffffffffffffff      0x17c /media/source/kernel-3.4.0/mediatek/preloader/out/dramc_calib.o

.text.dqs_input_delay
                0xc2011e08       0x7c
 .text.dqs_input_delay
                0xffffffffffffffff       0x7c /media/source/kernel-3.4.0/mediatek/preloader/out/dramc_calib.o

.text.do_hw_dq_dqs_calib
                0xc2011e84      0x4bc
 .text.do_hw_dq_dqs_calib
                0xffffffffffffffff      0x4bc /media/source/kernel-3.4.0/mediatek/preloader/out/dramc_calib.o

.text.dramc_calib
                0xc2012340       0x8c
 .text.dramc_calib
                0xffffffffffffffff       0x8c /media/source/kernel-3.4.0/mediatek/preloader/out/dramc_calib.o
                0xc2012340                dramc_calib

.text.ett_print_dqs_gw_before_each_round_of_loop_zero
                0xc20123cc       0x6c
 .text.ett_print_dqs_gw_before_each_round_of_loop_zero
                0xffffffffffffffff       0x6c /media/source/kernel-3.4.0/mediatek/preloader/out/dramc_dqs_gw.o
                0xc20123cc                ett_print_dqs_gw_before_each_round_of_loop_zero

.text.ett_print_dqs_gw_after_each_round_of_loop_zero
                0xc2012438        0x4
 .text.ett_print_dqs_gw_after_each_round_of_loop_zero
                0xffffffffffffffff        0x4 /media/source/kernel-3.4.0/mediatek/preloader/out/dramc_dqs_gw.o
                0xc2012438                ett_print_dqs_gw_after_each_round_of_loop_zero

.text.ett_calc_dqs_gw_opt_value
                0xc201243c        0x4
 .text.ett_calc_dqs_gw_opt_value
                0xffffffffffffffff        0x4 /media/source/kernel-3.4.0/mediatek/preloader/out/dramc_dqs_gw.o
                0xc201243c                ett_calc_dqs_gw_opt_value

.text.ett_print_dqs_gw_fine_after_finish_loop_zero
                0xc2012440       0x10
 .text.ett_print_dqs_gw_fine_after_finish_loop_zero
                0xffffffffffffffff       0x10 /media/source/kernel-3.4.0/mediatek/preloader/out/dramc_dqs_gw.o
                0xc2012440                ett_print_dqs_gw_fine_after_finish_loop_zero

.text.__ett_print_dqs_gw_result
                0xc2012450      0x268
 .text.__ett_print_dqs_gw_result
                0xffffffffffffffff      0x268 /media/source/kernel-3.4.0/mediatek/preloader/out/dramc_dqs_gw.o

.text.ett_print_dqs_gw_result_1
                0xc20126b8       0x14
 .text.ett_print_dqs_gw_result_1
                0xffffffffffffffff       0x14 /media/source/kernel-3.4.0/mediatek/preloader/out/dramc_dqs_gw.o

.text.ett_print_dqs_gw_before_start_loop_zero
                0xc20126cc       0x30
 .text.ett_print_dqs_gw_before_start_loop_zero
                0xffffffffffffffff       0x30 /media/source/kernel-3.4.0/mediatek/preloader/out/dramc_dqs_gw.o
                0xc20126cc                ett_print_dqs_gw_before_start_loop_zero

.text.dqsi_gw_dly_fine_factor_handler
                0xc20126fc       0x34
 .text.dqsi_gw_dly_fine_factor_handler
                0xffffffffffffffff       0x34 /media/source/kernel-3.4.0/mediatek/preloader/out/dramc_dqs_gw.o
                0xc20126fc                dqsi_gw_dly_fine_factor_handler

.text.dqsi_gw_dly_coarse_factor_handler
                0xc2012730       0x48
 .text.dqsi_gw_dly_coarse_factor_handler
                0xffffffffffffffff       0x48 /media/source/kernel-3.4.0/mediatek/preloader/out/dramc_dqs_gw.o
                0xc2012730                dqsi_gw_dly_coarse_factor_handler

.text.ett_print_dqs_gw_banner
                0xc2012778       0x30
 .text.ett_print_dqs_gw_banner
                0xffffffffffffffff       0x30 /media/source/kernel-3.4.0/mediatek/preloader/out/dramc_dqs_gw.o
                0xc2012778                ett_print_dqs_gw_banner

.text.ett_print_dqs_gw_result_2
                0xc20127a8       0x34
 .text.ett_print_dqs_gw_result_2
                0xffffffffffffffff       0x34 /media/source/kernel-3.4.0/mediatek/preloader/out/dramc_dqs_gw.o

.text.ett_recursive_factor_tuning
                0xc20127dc      0x100
 .text.ett_recursive_factor_tuning
                0xffffffffffffffff      0x100 /media/source/kernel-3.4.0/mediatek/preloader/out/dramc_dqs_gw.o
                0xc20127dc                ett_recursive_factor_tuning

.text.__do_dqs_gw_calib
                0xc20128dc      0x2d0
 .text.__do_dqs_gw_calib
                0xffffffffffffffff      0x2d0 /media/source/kernel-3.4.0/mediatek/preloader/out/dramc_dqs_gw.o

.text.Sequence_Read
                0xc2012bac       0x90
 .text.Sequence_Read
                0xffffffffffffffff       0x90 /media/source/kernel-3.4.0/mediatek/preloader/out/dramc_dqs_gw.o
                0xc2012bac                Sequence_Read

.text.Read_Test
                0xc2012c3c       0x5c
 .text.Read_Test
                0xffffffffffffffff       0x5c /media/source/kernel-3.4.0/mediatek/preloader/out/dramc_dqs_gw.o
                0xc2012c3c                Read_Test

.text.dramc_ta2
                0xc2012c98      0x244
 .text.dramc_ta2
                0xffffffffffffffff      0x244 /media/source/kernel-3.4.0/mediatek/preloader/out/dramc_dqs_gw.o
                0xc2012c98                dramc_ta2

.text.do_dqs_gw_calib_1
                0xc2012edc       0x38
 .text.do_dqs_gw_calib_1
                0xffffffffffffffff       0x38 /media/source/kernel-3.4.0/mediatek/preloader/out/dramc_dqs_gw.o
                0xc2012edc                do_dqs_gw_calib_1

.text.do_dqs_gw_calib_2
                0xc2012f14       0x3c
 .text.do_dqs_gw_calib_2
                0xffffffffffffffff       0x3c /media/source/kernel-3.4.0/mediatek/preloader/out/dramc_dqs_gw.o
                0xc2012f14                do_dqs_gw_calib_2

.text.mt_set_gpio_dir
                0xc2012f50       0x74
 .text.mt_set_gpio_dir
                0xffffffffffffffff       0x74 /media/source/kernel-3.4.0/mediatek/preloader/out/gpio.o
                0xc2012f50                mt_set_gpio_dir

.text.mt_set_gpio_pull_enable
                0xc2012fc4       0x7c
 .text.mt_set_gpio_pull_enable
                0xffffffffffffffff       0x7c /media/source/kernel-3.4.0/mediatek/preloader/out/gpio.o
                0xc2012fc4                mt_set_gpio_pull_enable

.text.mt_set_gpio_pull_select
                0xc2013040       0x80
 .text.mt_set_gpio_pull_select
                0xffffffffffffffff       0x80 /media/source/kernel-3.4.0/mediatek/preloader/out/gpio.o
                0xc2013040                mt_set_gpio_pull_select

.text.mt_set_gpio_out
                0xc20130c0       0x80
 .text.mt_set_gpio_out
                0xffffffffffffffff       0x80 /media/source/kernel-3.4.0/mediatek/preloader/out/gpio.o
                0xc20130c0                mt_set_gpio_out

.text.mt_set_gpio_mode
                0xc2013140       0x70
 .text.mt_set_gpio_mode
                0xffffffffffffffff       0x70 /media/source/kernel-3.4.0/mediatek/preloader/out/gpio.o
                0xc2013140                mt_set_gpio_mode

.text.uart_recv
                0xc20131b0       0x44
 .text.uart_recv
                0xffffffffffffffff       0x44 /media/source/kernel-3.4.0/mediatek/preloader/out/handshake_uart.o

.text.uart_send
                0xc20131f4       0x48
 .text.uart_send
                0xffffffffffffffff       0x48 /media/source/kernel-3.4.0/mediatek/preloader/out/handshake_uart.o

.text.uart_handshake_init
                0xc201323c       0x58
 .text.uart_handshake_init
                0xffffffffffffffff       0x58 /media/source/kernel-3.4.0/mediatek/preloader/out/handshake_uart.o
                0xc201323c                uart_handshake_init

.text.uart_handshake
                0xc2013294      0x1b8
 .text.uart_handshake
                0xffffffffffffffff      0x1b8 /media/source/kernel-3.4.0/mediatek/preloader/out/handshake_uart.o
                0xc2013294                uart_handshake

.text.usb_recv  0xc201344c       0x84
 .text.usb_recv
                0xffffffffffffffff       0x84 /media/source/kernel-3.4.0/mediatek/preloader/out/handshake_usb.o

.text.usb_send  0xc20134d0       0x24
 .text.usb_send
                0xffffffffffffffff       0x24 /media/source/kernel-3.4.0/mediatek/preloader/out/handshake_usb.o

.text.usb_handshake
                0xc20134f4      0x39c
 .text.usb_handshake
                0xffffffffffffffff      0x39c /media/source/kernel-3.4.0/mediatek/preloader/out/handshake_usb.o
                0xc20134f4                usb_handshake

.text.bldr_cmd_handler
                0xc2013890      0x370
 .text.bldr_cmd_handler
                0xffffffffffffffff      0x370 /media/source/kernel-3.4.0/mediatek/preloader/out/main.o

.text.bldr_load_part
                0xc2013c00       0x5c
 .text.bldr_load_part
                0xffffffffffffffff       0x5c /media/source/kernel-3.4.0/mediatek/preloader/out/main.o
                0xc2013c00                bldr_load_part

.text.bldr_jump
                0xc2013c5c       0x90
 .text.bldr_jump
                0xffffffffffffffff       0x90 /media/source/kernel-3.4.0/mediatek/preloader/out/main.o
                0xc2013c5c                bldr_jump

.text.startup.main
                0xc2013cec      0x248
 .text.startup.main
                0xffffffffffffffff      0x248 /media/source/kernel-3.4.0/mediatek/preloader/out/main.o
                0xc2013cec                main

.text.mmc_switch_part
                0xc2013f34       0xb8
 .text.mmc_switch_part
                0xffffffffffffffff       0xb8 /media/source/kernel-3.4.0/mediatek/preloader/out/mmc_common_inter.o

.text.mmc_bwrite
                0xc2013fec       0x7c
 .text.mmc_bwrite
                0xffffffffffffffff       0x7c /media/source/kernel-3.4.0/mediatek/preloader/out/mmc_common_inter.o

.text.mmc_bread
                0xc2014068       0x7c
 .text.mmc_bread
                0xffffffffffffffff       0x7c /media/source/kernel-3.4.0/mediatek/preloader/out/mmc_common_inter.o

.text.mmc_init_device
                0xc20140e4      0x2d0
 .text.mmc_init_device
                0xffffffffffffffff      0x2d0 /media/source/kernel-3.4.0/mediatek/preloader/out/mmc_common_inter.o
                0xc20140e4                mmc_init_device

.text.mmc_get_device_id
                0xc20143b4       0x98
 .text.mmc_get_device_id
                0xffffffffffffffff       0x98 /media/source/kernel-3.4.0/mediatek/preloader/out/mmc_common_inter.o
                0xc20143b4                mmc_get_device_id

.text.unstuff_bits
                0xc201444c       0x40
 .text.unstuff_bits
                0xffffffffffffffff       0x40 /media/source/kernel-3.4.0/mediatek/preloader/out/mmc_core.o

.text.mmc_cmd   0xc201448c       0x30
 .text.mmc_cmd  0xffffffffffffffff       0x30 /media/source/kernel-3.4.0/mediatek/preloader/out/mmc_core.o

.text.mmc_send_if_cond
                0xc20144bc       0x70
 .text.mmc_send_if_cond
                0xffffffffffffffff       0x70 /media/source/kernel-3.4.0/mediatek/preloader/out/mmc_core.o

.text.mmc_app_cmd
                0xc201452c       0x74
 .text.mmc_app_cmd
                0xffffffffffffffff       0x74 /media/source/kernel-3.4.0/mediatek/preloader/out/mmc_core.o

.text.mmc_send_app_op_cond
                0xc20145a0       0x8c
 .text.mmc_send_app_op_cond
                0xffffffffffffffff       0x8c /media/source/kernel-3.4.0/mediatek/preloader/out/mmc_core.o

.text.mmc_send_op_cond
                0xc201462c       0x94
 .text.mmc_send_op_cond
                0xffffffffffffffff       0x94 /media/source/kernel-3.4.0/mediatek/preloader/out/mmc_core.o

.text.mmc_sd_switch.isra.0.constprop.3
                0xc20146c0      0x108
 .text.mmc_sd_switch.isra.0.constprop.3
                0xffffffffffffffff      0x108 /media/source/kernel-3.4.0/mediatek/preloader/out/mmc_core.o

.text.mmc_get_host
                0xc20147c8       0x18
 .text.mmc_get_host
                0xffffffffffffffff       0x18 /media/source/kernel-3.4.0/mediatek/preloader/out/mmc_core.o
                0xc20147c8                mmc_get_host

.text.mmc_get_card
                0xc20147e0       0x18
 .text.mmc_get_card
                0xffffffffffffffff       0x18 /media/source/kernel-3.4.0/mediatek/preloader/out/mmc_core.o
                0xc20147e0                mmc_get_card

.text.mmc_go_idle
                0xc20147f8       0x38
 .text.mmc_go_idle
                0xffffffffffffffff       0x38 /media/source/kernel-3.4.0/mediatek/preloader/out/mmc_core.o
                0xc20147f8                mmc_go_idle

.text.mmc_send_status
                0xc2014830       0x54
 .text.mmc_send_status
                0xffffffffffffffff       0x54 /media/source/kernel-3.4.0/mediatek/preloader/out/mmc_core.o
                0xc2014830                mmc_send_status

.text.mmc_select_card
                0xc2014884       0x44
 .text.mmc_select_card
                0xffffffffffffffff       0x44 /media/source/kernel-3.4.0/mediatek/preloader/out/mmc_core.o
                0xc2014884                mmc_select_card

.text.mmc_switch
                0xc20148c8       0xd4
 .text.mmc_switch
                0xffffffffffffffff       0xd4 /media/source/kernel-3.4.0/mediatek/preloader/out/mmc_core.o
                0xc20148c8                mmc_switch

.text.mmc_switch_hs
                0xc201499c       0x78
 .text.mmc_switch_hs
                0xffffffffffffffff       0x78 /media/source/kernel-3.4.0/mediatek/preloader/out/mmc_core.o
                0xc201499c                mmc_switch_hs

.text.mmc_read_ext_csd
                0xc2014a14      0x1b8
 .text.mmc_read_ext_csd
                0xffffffffffffffff      0x1b8 /media/source/kernel-3.4.0/mediatek/preloader/out/mmc_core.o
                0xc2014a14                mmc_read_ext_csd

.text.mmc_set_clock
                0xc2014bcc       0x2c
 .text.mmc_set_clock
                0xffffffffffffffff       0x2c /media/source/kernel-3.4.0/mediatek/preloader/out/mmc_core.o
                0xc2014bcc                mmc_set_clock

.text.mmc_dev_bwrite
                0xc2014bf8      0x154
 .text.mmc_dev_bwrite
                0xffffffffffffffff      0x154 /media/source/kernel-3.4.0/mediatek/preloader/out/mmc_core.o

.text.mmc_set_card_detect
                0xc2014d4c       0x44
 .text.mmc_set_card_detect
                0xffffffffffffffff       0x44 /media/source/kernel-3.4.0/mediatek/preloader/out/mmc_core.o
                0xc2014d4c                mmc_set_card_detect

.text.mmc_set_blk_length
                0xc2014d90       0x5c
 .text.mmc_set_blk_length
                0xffffffffffffffff       0x5c /media/source/kernel-3.4.0/mediatek/preloader/out/mmc_core.o
                0xc2014d90                mmc_set_blk_length

.text.mmc_set_bus_width
                0xc2014dec      0x1c0
 .text.mmc_set_bus_width
                0xffffffffffffffff      0x1c0 /media/source/kernel-3.4.0/mediatek/preloader/out/mmc_core.o
                0xc2014dec                mmc_set_bus_width

.text.mmc_dev_bread
                0xc2014fac      0x124
 .text.mmc_dev_bread
                0xffffffffffffffff      0x124 /media/source/kernel-3.4.0/mediatek/preloader/out/mmc_core.o
                0xc2014fac                mmc_dev_bread

.text.mmc_block_read
                0xc20150d0       0xe8
 .text.mmc_block_read
                0xffffffffffffffff       0xe8 /media/source/kernel-3.4.0/mediatek/preloader/out/mmc_core.o
                0xc20150d0                mmc_block_read

.text.mmc_block_write
                0xc20151b8       0xe8
 .text.mmc_block_write
                0xffffffffffffffff       0xe8 /media/source/kernel-3.4.0/mediatek/preloader/out/mmc_core.o
                0xc20151b8                mmc_block_write

.text.mmc_init_mem_card
                0xc20152a0      0x984
 .text.mmc_init_mem_card
                0xffffffffffffffff      0x984 /media/source/kernel-3.4.0/mediatek/preloader/out/mmc_core.o
                0xc20152a0                mmc_init_mem_card

.text.mmc_init_card
                0xc2015c24      0x2a4
 .text.mmc_init_card
                0xffffffffffffffff      0x2a4 /media/source/kernel-3.4.0/mediatek/preloader/out/mmc_core.o
                0xc2015c24                mmc_init_card

.text.mmc_init_host
                0xc2015ec8       0x28
 .text.mmc_init_host
                0xffffffffffffffff       0x28 /media/source/kernel-3.4.0/mediatek/preloader/out/mmc_core.o
                0xc2015ec8                mmc_init_host

.text.mmc_init  0xc2015ef0       0x5c
 .text.mmc_init
                0xffffffffffffffff       0x5c /media/source/kernel-3.4.0/mediatek/preloader/out/mmc_core.o
                0xc2015ef0                mmc_init

.text.msdc_clr_fifo
                0xc2015f4c       0x4c
 .text.msdc_clr_fifo
                0xffffffffffffffff       0x4c /media/source/kernel-3.4.0/mediatek/preloader/out/msdc.o
                0xc2015f4c                msdc_clr_fifo

.text.msdc_set_timeout
                0xc2015f98       0x5c
 .text.msdc_set_timeout
                0xffffffffffffffff       0x5c /media/source/kernel-3.4.0/mediatek/preloader/out/msdc.o
                0xc2015f98                msdc_set_timeout

.text.msdc_set_blklen
                0xc2015ff4       0x18
 .text.msdc_set_blklen
                0xffffffffffffffff       0x18 /media/source/kernel-3.4.0/mediatek/preloader/out/msdc.o
                0xc2015ff4                msdc_set_blklen

.text.msdc_set_blknum
                0xc201600c        0xc
 .text.msdc_set_blknum
                0xffffffffffffffff        0xc /media/source/kernel-3.4.0/mediatek/preloader/out/msdc.o
                0xc201600c                msdc_set_blknum

.text.msdc_set_driving
                0xc2016018       0x84
 .text.msdc_set_driving
                0xffffffffffffffff       0x84 /media/source/kernel-3.4.0/mediatek/preloader/out/msdc.o
                0xc2016018                msdc_set_driving

.text.msdc_reset
                0xc201609c       0x48
 .text.msdc_reset
                0xffffffffffffffff       0x48 /media/source/kernel-3.4.0/mediatek/preloader/out/msdc.o
                0xc201609c                msdc_reset

.text.msdc_abort
                0xc20160e4       0x34
 .text.msdc_abort
                0xffffffffffffffff       0x34 /media/source/kernel-3.4.0/mediatek/preloader/out/msdc.o
                0xc20160e4                msdc_abort

.text.msdc_intr_wait
                0xc2016118       0x1c
 .text.msdc_intr_wait
                0xffffffffffffffff       0x1c /media/source/kernel-3.4.0/mediatek/preloader/out/msdc.o
                0xc2016118                msdc_intr_wait

.text.msdc_intr_unmask
                0xc2016134       0x14
 .text.msdc_intr_unmask
                0xffffffffffffffff       0x14 /media/source/kernel-3.4.0/mediatek/preloader/out/msdc.o
                0xc2016134                msdc_intr_unmask

.text.msdc_send_cmd
                0xc2016148      0x234
 .text.msdc_send_cmd
                0xffffffffffffffff      0x234 /media/source/kernel-3.4.0/mediatek/preloader/out/msdc.o
                0xc2016148                msdc_send_cmd

.text.msdc_wait_rsp
                0xc201637c      0x154
 .text.msdc_wait_rsp
                0xffffffffffffffff      0x154 /media/source/kernel-3.4.0/mediatek/preloader/out/msdc.o
                0xc201637c                msdc_wait_rsp

.text.msdc_pio_read_word
                0xc20164d0      0x130
 .text.msdc_pio_read_word
                0xffffffffffffffff      0x130 /media/source/kernel-3.4.0/mediatek/preloader/out/msdc.o
                0xc20164d0                msdc_pio_read_word

.text.msdc_pio_read
                0xc2016600       0x24
 .text.msdc_pio_read
                0xffffffffffffffff       0x24 /media/source/kernel-3.4.0/mediatek/preloader/out/msdc.o
                0xc2016600                msdc_pio_read

.text.msdc_pio_write_word
                0xc2016624      0x100
 .text.msdc_pio_write_word
                0xffffffffffffffff      0x100 /media/source/kernel-3.4.0/mediatek/preloader/out/msdc.o
                0xc2016624                msdc_pio_write_word

.text.msdc_pio_write
                0xc2016724       0x24
 .text.msdc_pio_write
                0xffffffffffffffff       0x24 /media/source/kernel-3.4.0/mediatek/preloader/out/msdc.o
                0xc2016724                msdc_pio_write

.text.msdc_config_clksrc
                0xc2016748       0x8c
 .text.msdc_config_clksrc
                0xffffffffffffffff       0x8c /media/source/kernel-3.4.0/mediatek/preloader/out/msdc.o
                0xc2016748                msdc_config_clksrc

.text.msdc_config_clock
                0xc20167d4      0x184
 .text.msdc_config_clock
                0xffffffffffffffff      0x184 /media/source/kernel-3.4.0/mediatek/preloader/out/msdc.o
                0xc20167d4                msdc_config_clock

.text.msdc_config_bus
                0xc2016958       0x44
 .text.msdc_config_bus
                0xffffffffffffffff       0x44 /media/source/kernel-3.4.0/mediatek/preloader/out/msdc.o
                0xc2016958                msdc_config_bus

.text.msdc_config_pin
                0xc201699c       0xd0
 .text.msdc_config_pin
                0xffffffffffffffff       0xd0 /media/source/kernel-3.4.0/mediatek/preloader/out/msdc.o
                0xc201699c                msdc_config_pin

.text.msdc_clock
                0xc2016a6c        0x4
 .text.msdc_clock
                0xffffffffffffffff        0x4 /media/source/kernel-3.4.0/mediatek/preloader/out/msdc.o
                0xc2016a6c                msdc_clock

.text.msdc_host_power
                0xc2016a70       0x3c
 .text.msdc_host_power
                0xffffffffffffffff       0x3c /media/source/kernel-3.4.0/mediatek/preloader/out/msdc.o
                0xc2016a70                msdc_host_power

.text.msdc_card_power
                0xc2016aac        0x4
 .text.msdc_card_power
                0xffffffffffffffff        0x4 /media/source/kernel-3.4.0/mediatek/preloader/out/msdc.o
                0xc2016aac                msdc_card_power

.text.msdc_power
                0xc2016ab0       0x48
 .text.msdc_power
                0xffffffffffffffff       0x48 /media/source/kernel-3.4.0/mediatek/preloader/out/msdc.o
                0xc2016ab0                msdc_power

.text.msdc_reset_tune_counter
                0xc2016af8        0xc
 .text.msdc_reset_tune_counter
                0xffffffffffffffff        0xc /media/source/kernel-3.4.0/mediatek/preloader/out/msdc.o
                0xc2016af8                msdc_reset_tune_counter

.text.msdc_tune_cmdrsp
                0xc2016b04      0x264
 .text.msdc_tune_cmdrsp
                0xffffffffffffffff      0x264 /media/source/kernel-3.4.0/mediatek/preloader/out/msdc.o
                0xc2016b04                msdc_tune_cmdrsp

.text.msdc_cmd  0xc2016d68       0x74
 .text.msdc_cmd
                0xffffffffffffffff       0x74 /media/source/kernel-3.4.0/mediatek/preloader/out/msdc.o
                0xc2016d68                msdc_cmd

.text.msdc_abort_handler
                0xc2016ddc      0x138
 .text.msdc_abort_handler
                0xffffffffffffffff      0x138 /media/source/kernel-3.4.0/mediatek/preloader/out/msdc.o
                0xc2016ddc                msdc_abort_handler

.text.msdc_pio_bwrite
                0xc2016f14      0x174
 .text.msdc_pio_bwrite
                0xffffffffffffffff      0x174 /media/source/kernel-3.4.0/mediatek/preloader/out/msdc.o
                0xc2016f14                msdc_pio_bwrite

.text.msdc_pio_bread
                0xc2017088      0x188
 .text.msdc_pio_bread
                0xffffffffffffffff      0x188 /media/source/kernel-3.4.0/mediatek/preloader/out/msdc.o
                0xc2017088                msdc_pio_bread

.text.msdc_tune_bread
                0xc2017210      0x328
 .text.msdc_tune_bread
                0xffffffffffffffff      0x328 /media/source/kernel-3.4.0/mediatek/preloader/out/msdc.o
                0xc2017210                msdc_tune_bread

.text.msdc_tune_read
                0xc2017538      0x300
 .text.msdc_tune_read
                0xffffffffffffffff      0x300 /media/source/kernel-3.4.0/mediatek/preloader/out/msdc.o
                0xc2017538                msdc_tune_read

.text.msdc_init
                0xc2017838      0x2c0
 .text.msdc_init
                0xffffffffffffffff      0x2c0 /media/source/kernel-3.4.0/mediatek/preloader/out/msdc.o
                0xc2017838                msdc_init

.text.msdc_uffs
                0xc2017af8       0x54
 .text.msdc_uffs
                0xffffffffffffffff       0x54 /media/source/kernel-3.4.0/mediatek/preloader/out/msdc_utils.o
                0xc2017af8                msdc_uffs

.text.msdc_set_field
                0xc2017b4c       0x2c
 .text.msdc_set_field
                0xffffffffffffffff       0x2c /media/source/kernel-3.4.0/mediatek/preloader/out/msdc_utils.o
                0xc2017b4c                msdc_set_field

.text.msdc_get_field
                0xc2017b78       0x28
 .text.msdc_get_field
                0xffffffffffffffff       0x28 /media/source/kernel-3.4.0/mediatek/preloader/out/msdc_utils.o
                0xc2017b78                msdc_get_field

.text.complex_mem_test
                0xc2017ba0      0x640
 .text.complex_mem_test
                0xffffffffffffffff      0x640 /media/source/kernel-3.4.0/mediatek/preloader/out/mt6577_memory.o
                0xc2017ba0                complex_mem_test

.text.mt_mem_init
                0xc20181e0       0x7c
 .text.mt_mem_init
                0xffffffffffffffff       0x7c /media/source/kernel-3.4.0/mediatek/preloader/out/mt6577_memory.o
                0xc20181e0                mt_mem_init

.text.power_off_cpu1
                0xc201825c       0xb4
 .text.power_off_cpu1
                0xffffffffffffffff       0xb4 /media/source/kernel-3.4.0/mediatek/preloader/out/mt_cpu_power.o
                0xc201825c                power_off_cpu1

.text.mt_get_mdl_number
                0xc2018310      0x12c
 .text.mt_get_mdl_number
                0xffffffffffffffff      0x12c /media/source/kernel-3.4.0/mediatek/preloader/out/mt_emi.o

.text.unlikely.init_dram1
                0xc201843c      0x240
 .text.unlikely.init_dram1
                0xffffffffffffffff      0x240 /media/source/kernel-3.4.0/mediatek/preloader/out/mt_emi.o

.text.init_dram2
                0xc201867c      0x320
 .text.init_dram2
                0xffffffffffffffff      0x320 /media/source/kernel-3.4.0/mediatek/preloader/out/mt_emi.o

.text.mt_get_dram_type
                0xc201899c       0x54
 .text.mt_get_dram_type
                0xffffffffffffffff       0x54 /media/source/kernel-3.4.0/mediatek/preloader/out/mt_emi.o
                0xc201899c                mt_get_dram_type

.text.get_dram_rank_nr
                0xc20189f0       0x5c
 .text.get_dram_rank_nr
                0xffffffffffffffff       0x5c /media/source/kernel-3.4.0/mediatek/preloader/out/mt_emi.o
                0xc20189f0                get_dram_rank_nr

.text.get_dram_rank_size
                0xc2018a4c       0x68
 .text.get_dram_rank_size
                0xffffffffffffffff       0x68 /media/source/kernel-3.4.0/mediatek/preloader/out/mt_emi.o
                0xc2018a4c                get_dram_rank_size

.text.mt_set_emi
                0xc2018ab4      0x764
 .text.mt_set_emi
                0xffffffffffffffff      0x764 /media/source/kernel-3.4.0/mediatek/preloader/out/mt_emi.o
                0xc2018ab4                mt_set_emi

.text.i2c_v1_set_speed
                0xc2019218      0x16c
 .text.i2c_v1_set_speed
                0xffffffffffffffff      0x16c /media/source/kernel-3.4.0/mediatek/preloader/out/mt_i2c.o
                0xc2019218                i2c_v1_set_speed

.text.i2c_v1_init
                0xc2019384       0x88
 .text.i2c_v1_init
                0xffffffffffffffff       0x88 /media/source/kernel-3.4.0/mediatek/preloader/out/mt_i2c.o
                0xc2019384                i2c_v1_init

.text.i2c_v1_read
                0xc201940c      0x154
 .text.i2c_v1_read
                0xffffffffffffffff      0x154 /media/source/kernel-3.4.0/mediatek/preloader/out/mt_i2c.o
                0xc201940c                i2c_v1_read

.text.i2c_v1_write
                0xc2019560      0x124
 .text.i2c_v1_write
                0xffffffffffffffff      0x124 /media/source/kernel-3.4.0/mediatek/preloader/out/mt_i2c.o
                0xc2019560                i2c_v1_write

.text.i2c_workaround
                0xc2019684       0x64
 .text.i2c_workaround
                0xffffffffffffffff       0x64 /media/source/kernel-3.4.0/mediatek/preloader/out/mt_i2c.o
                0xc2019684                i2c_workaround

.text.mtk_detect_key
                0xc20196e8       0xd0
 .text.mtk_detect_key
                0xffffffffffffffff       0xd0 /media/source/kernel-3.4.0/mediatek/preloader/out/mtk_key.o
                0xc20196e8                mtk_detect_key

.text.mtk_detect_dl_keys
                0xc20197b8       0x50
 .text.mtk_detect_dl_keys
                0xffffffffffffffff       0x50 /media/source/kernel-3.4.0/mediatek/preloader/out/mtk_key.o
                0xc20197b8                mtk_detect_dl_keys

.text.mtk_kpd_gpios
                0xc2019808       0x40
 .text.mtk_kpd_gpios
                0xffffffffffffffff       0x40 /media/source/kernel-3.4.0/mediatek/preloader/out/mtk_key.o
                0xc2019808                mtk_kpd_gpios

.text.mtk_kpd_gpio_set
                0xc2019848       0xcc
 .text.mtk_kpd_gpio_set
                0xffffffffffffffff       0xcc /media/source/kernel-3.4.0/mediatek/preloader/out/mtk_key.o
                0xc2019848                mtk_kpd_gpio_set

.text.get_timer_masked
                0xc2019914       0xb0
 .text.get_timer_masked
                0xffffffffffffffff       0xb0 /media/source/kernel-3.4.0/mediatek/preloader/out/mtk_timer.o

.text.gpt_busy_wait_us
                0xc20199c4       0x4c
 .text.gpt_busy_wait_us
                0xffffffffffffffff       0x4c /media/source/kernel-3.4.0/mediatek/preloader/out/mtk_timer.o
                0xc20199c4                gpt_busy_wait_us

.text.get_timer
                0xc2019a10       0x20
 .text.get_timer
                0xffffffffffffffff       0x20 /media/source/kernel-3.4.0/mediatek/preloader/out/mtk_timer.o
                0xc2019a10                get_timer

.text.mdelay    0xc2019a30       0x28
 .text.mdelay   0xffffffffffffffff       0x28 /media/source/kernel-3.4.0/mediatek/preloader/out/mtk_timer.o
                0xc2019a30                mdelay

.text.udelay    0xc2019a58       0x94
 .text.udelay   0xffffffffffffffff       0x94 /media/source/kernel-3.4.0/mediatek/preloader/out/mtk_timer.o
                0xc2019a58                udelay

.text.mtk_timer_init
                0xc2019aec       0x6c
 .text.mtk_timer_init
                0xffffffffffffffff       0x6c /media/source/kernel-3.4.0/mediatek/preloader/out/mtk_timer.o
                0xc2019aec                mtk_timer_init

.text.mtk_wdt_reset
                0xc2019b58       0x44
 .text.mtk_wdt_reset
                0xffffffffffffffff       0x44 /media/source/kernel-3.4.0/mediatek/preloader/out/mtk_wdt.o

.text.mtk_wdt_mode_config.constprop.1
                0xc2019b9c       0x30
 .text.mtk_wdt_mode_config.constprop.1
                0xffffffffffffffff       0x30 /media/source/kernel-3.4.0/mediatek/preloader/out/mtk_wdt.o

.text.mtk_wdt_restart
                0xc2019bcc       0x10
 .text.mtk_wdt_restart
                0xffffffffffffffff       0x10 /media/source/kernel-3.4.0/mediatek/preloader/out/mtk_wdt.o
                0xc2019bcc                mtk_wdt_restart

.text.mtk_wdt_boot_check
                0xc2019bdc       0x80
 .text.mtk_wdt_boot_check
                0xffffffffffffffff       0x80 /media/source/kernel-3.4.0/mediatek/preloader/out/mtk_wdt.o
                0xc2019bdc                mtk_wdt_boot_check

.text.mtk_wdt_init
                0xc2019c5c      0x2d8
 .text.mtk_wdt_init
                0xffffffffffffffff      0x2d8 /media/source/kernel-3.4.0/mediatek/preloader/out/mtk_wdt.o
                0xc2019c5c                mtk_wdt_init

.text.mtk_arch_reset
                0xc2019f34       0x24
 .text.mtk_arch_reset
                0xffffffffffffffff       0x24 /media/source/kernel-3.4.0/mediatek/preloader/out/mtk_wdt.o
                0xc2019f34                mtk_arch_reset

.text.pmic6329_i2c_read
                0xc2019f58       0x30
 .text.pmic6329_i2c_read
                0xffffffffffffffff       0x30 /media/source/kernel-3.4.0/mediatek/preloader/out/mt_pmic6329.o
                0xc2019f58                pmic6329_i2c_read

.text.pmic6329_i2c_write
                0xc2019f88       0x78
 .text.pmic6329_i2c_write
                0xffffffffffffffff       0x78 /media/source/kernel-3.4.0/mediatek/preloader/out/mt_pmic6329.o
                0xc2019f88                pmic6329_i2c_write

.text.get_pmic6329_chip_version
                0xc201a000       0x64
 .text.get_pmic6329_chip_version
                0xffffffffffffffff       0x64 /media/source/kernel-3.4.0/mediatek/preloader/out/mt_pmic6329.o
                0xc201a000                get_pmic6329_chip_version

.text.pmic_IsUsbCableIn
                0xc201a064       0x78
 .text.pmic_IsUsbCableIn
                0xffffffffffffffff       0x78 /media/source/kernel-3.4.0/mediatek/preloader/out/mt_pmic6329.o
                0xc201a064                pmic_IsUsbCableIn

.text.pmic_read_interface
                0xc201a0dc       0x50
 .text.pmic_read_interface
                0xffffffffffffffff       0x50 /media/source/kernel-3.4.0/mediatek/preloader/out/mt_pmic6329.o
                0xc201a0dc                pmic_read_interface

.text.pmic_config_interface
                0xc201a12c       0x70
 .text.pmic_config_interface
                0xffffffffffffffff       0x70 /media/source/kernel-3.4.0/mediatek/preloader/out/mt_pmic6329.o
                0xc201a12c                pmic_config_interface

.text.pl_hw_ulc_det
                0xc201a19c       0x30
 .text.pl_hw_ulc_det
                0xffffffffffffffff       0x30 /media/source/kernel-3.4.0/mediatek/preloader/out/mt_pmic6329.o
                0xc201a19c                pl_hw_ulc_det

.text.pmic_bank1_read_interface
                0xc201a1cc       0x50
 .text.pmic_bank1_read_interface
                0xffffffffffffffff       0x50 /media/source/kernel-3.4.0/mediatek/preloader/out/mt_pmic6329.o
                0xc201a1cc                pmic_bank1_read_interface

.text.pmic_bank1_config_interface
                0xc201a21c       0x70
 .text.pmic_bank1_config_interface
                0xffffffffffffffff       0x70 /media/source/kernel-3.4.0/mediatek/preloader/out/mt_pmic6329.o
                0xc201a21c                pmic_bank1_config_interface

.text.hw_charger_type_detection
                0xc201a28c      0x31c
 .text.hw_charger_type_detection
                0xffffffffffffffff      0x31c /media/source/kernel-3.4.0/mediatek/preloader/out/mt_pmic6329.o
                0xc201a28c                hw_charger_type_detection

.text.mt_charger_type_detection
                0xc201a5a8       0x64
 .text.mt_charger_type_detection
                0xffffffffffffffff       0x64 /media/source/kernel-3.4.0/mediatek/preloader/out/mt_pmic6329.o
                0xc201a5a8                mt_charger_type_detection

.text.mt_detect_powerkey
                0xc201a60c       0x70
 .text.mt_detect_powerkey
                0xffffffffffffffff       0x70 /media/source/kernel-3.4.0/mediatek/preloader/out/mt_pmic6329.o
                0xc201a60c                mt_detect_powerkey

.text.hw_set_cc
                0xc201a67c      0x378
 .text.hw_set_cc
                0xffffffffffffffff      0x378 /media/source/kernel-3.4.0/mediatek/preloader/out/mt_pmic6329.o
                0xc201a67c                hw_set_cc

.text.hw_check_battery
                0xc201a9f4      0x1e8
 .text.hw_check_battery
                0xffffffffffffffff      0x1e8 /media/source/kernel-3.4.0/mediatek/preloader/out/mt_pmic6329.o
                0xc201a9f4                hw_check_battery

.text.pmic6329_init
                0xc201abdc      0x500
 .text.pmic6329_init
                0xffffffffffffffff      0x500 /media/source/kernel-3.4.0/mediatek/preloader/out/mt_pmic6329.o
                0xc201abdc                pmic6329_init

.text.pl_charging
                0xc201b0dc       0xc0
 .text.pl_charging
                0xffffffffffffffff       0xc0 /media/source/kernel-3.4.0/mediatek/preloader/out/mt_pmic6329.o
                0xc201b0dc                pl_charging

.text.pl_kick_chr_wdt
                0xc201b19c       0x58
 .text.pl_kick_chr_wdt
                0xffffffffffffffff       0x58 /media/source/kernel-3.4.0/mediatek/preloader/out/mt_pmic6329.o
                0xc201b19c                pl_kick_chr_wdt

.text.pl_close_pre_chr_led
                0xc201b1f4       0x2c
 .text.pl_close_pre_chr_led
                0xffffffffffffffff       0x2c /media/source/kernel-3.4.0/mediatek/preloader/out/mt_pmic6329.o
                0xc201b1f4                pl_close_pre_chr_led

.text.rtc_mktime
                0xc201b220       0xa4
 .text.rtc_mktime
                0xffffffffffffffff       0xa4 /media/source/kernel-3.4.0/mediatek/preloader/out/mt_rtc.o

.text.rtc_write_trigger
                0xc201b2c4       0x20
 .text.rtc_write_trigger
                0xffffffffffffffff       0x20 /media/source/kernel-3.4.0/mediatek/preloader/out/mt_rtc.o

.text.rtc_xosc_write
                0xc201b2e4       0x68
 .text.rtc_xosc_write
                0xffffffffffffffff       0x68 /media/source/kernel-3.4.0/mediatek/preloader/out/mt_rtc.o

.text.rtc_bbpu_power_on
                0xc201b34c       0x14
 .text.rtc_bbpu_power_on
                0xffffffffffffffff       0x14 /media/source/kernel-3.4.0/mediatek/preloader/out/mt_rtc.o
                0xc201b34c                rtc_bbpu_power_on

.text.rtc_mark_bypass_pwrkey
                0xc201b360       0x18
 .text.rtc_mark_bypass_pwrkey
                0xffffffffffffffff       0x18 /media/source/kernel-3.4.0/mediatek/preloader/out/mt_rtc.o
                0xc201b360                rtc_mark_bypass_pwrkey

.text.rtc_boot_check
                0xc201b378      0x4fc
 .text.rtc_boot_check
                0xffffffffffffffff      0x4fc /media/source/kernel-3.4.0/mediatek/preloader/out/mt_rtc.o
                0xc201b378                rtc_boot_check

.text.pl_power_off
                0xc201b874       0x48
 .text.pl_power_off
                0xffffffffffffffff       0x48 /media/source/kernel-3.4.0/mediatek/preloader/out/mt_rtc.o
                0xc201b874                pl_power_off

.text.mt_read_fifo
                0xc201b8bc       0xe8
 .text.mt_read_fifo
                0xffffffffffffffff       0xe8 /media/source/kernel-3.4.0/mediatek/preloader/out/mt_usbd.o

.text.mt_find_ep
                0xc201b9a4       0x60
 .text.mt_find_ep
                0xffffffffffffffff       0x60 /media/source/kernel-3.4.0/mediatek/preloader/out/mt_usbd.o

.text.mt_udc_flush_fifo
                0xc201ba04       0x60
 .text.mt_udc_flush_fifo
                0xffffffffffffffff       0x60 /media/source/kernel-3.4.0/mediatek/preloader/out/mt_usbd.o

.text.mt_write_fifo
                0xc201ba64       0xcc
 .text.mt_write_fifo
                0xffffffffffffffff       0xcc /media/source/kernel-3.4.0/mediatek/preloader/out/mt_usbd.o

.text.mt_udc_ep0_write
                0xc201bb30       0x7c
 .text.mt_udc_ep0_write
                0xffffffffffffffff       0x7c /media/source/kernel-3.4.0/mediatek/preloader/out/mt_usbd.o

.text.mt_udc_epx_handler
                0xc201bbac       0xac
 .text.mt_udc_epx_handler
                0xffffffffffffffff       0xac /media/source/kernel-3.4.0/mediatek/preloader/out/mt_usbd.o

.text.copy_desc
                0xc201bc58       0x50
 .text.copy_desc
                0xffffffffffffffff       0x50 /media/source/kernel-3.4.0/mediatek/preloader/out/mt_usbd.o

.text.mt_udc_irq
                0xc201bca8      0x820
 .text.mt_udc_irq
                0xffffffffffffffff      0x820 /media/source/kernel-3.4.0/mediatek/preloader/out/mt_usbd.o
                0xc201bca8                mt_udc_irq

.text.mt_ep_write
                0xc201c4c8       0x54
 .text.mt_ep_write
                0xffffffffffffffff       0x54 /media/source/kernel-3.4.0/mediatek/preloader/out/mt_usbd.o
                0xc201c4c8                mt_ep_write

.text.mt_ep_busy
                0xc201c51c       0x30
 .text.mt_ep_busy
                0xffffffffffffffff       0x30 /media/source/kernel-3.4.0/mediatek/preloader/out/mt_usbd.o
                0xc201c51c                mt_ep_busy

.text.mt_setup_ep
                0xc201c54c      0x218
 .text.mt_setup_ep
                0xffffffffffffffff      0x218 /media/source/kernel-3.4.0/mediatek/preloader/out/mt_usbd.o
                0xc201c54c                mt_setup_ep

.text.mt_usb_connect_internal
                0xc201c764       0x18
 .text.mt_usb_connect_internal
                0xffffffffffffffff       0x18 /media/source/kernel-3.4.0/mediatek/preloader/out/mt_usbd.o
                0xc201c764                mt_usb_connect_internal

.text.mt_usb_disconnect_internal
                0xc201c77c       0x18
 .text.mt_usb_disconnect_internal
                0xffffffffffffffff       0x18 /media/source/kernel-3.4.0/mediatek/preloader/out/mt_usbd.o
                0xc201c77c                mt_usb_disconnect_internal

.text.udc_enable
                0xc201c794       0x54
 .text.udc_enable
                0xffffffffffffffff       0x54 /media/source/kernel-3.4.0/mediatek/preloader/out/mt_usbd.o
                0xc201c794                udc_enable

.text.usb_service_offline
                0xc201c7e8       0x10
 .text.usb_service_offline
                0xffffffffffffffff       0x10 /media/source/kernel-3.4.0/mediatek/preloader/out/mt_usbd.o
                0xc201c7e8                usb_service_offline

.text.mt_usb_phy_poweron
                0xc201c7f8       0x74
 .text.mt_usb_phy_poweron
                0xffffffffffffffff       0x74 /media/source/kernel-3.4.0/mediatek/preloader/out/mt_usbphy.o
                0xc201c7f8                mt_usb_phy_poweron

.text.mt_usb_phy_savecurrent
                0xc201c86c       0xc4
 .text.mt_usb_phy_savecurrent
                0xffffffffffffffff       0xc4 /media/source/kernel-3.4.0/mediatek/preloader/out/mt_usbphy.o
                0xc201c86c                mt_usb_phy_savecurrent

.text.mt_usb_phy_recover
                0xc201c930       0x70
 .text.mt_usb_phy_recover
                0xffffffffffffffff       0x70 /media/source/kernel-3.4.0/mediatek/preloader/out/mt_usbphy.o
                0xc201c930                mt_usb_phy_recover

.text.mt_usb11_phy_savecurrent
                0xc201c9a0       0x48
 .text.mt_usb11_phy_savecurrent
                0xffffffffffffffff       0x48 /media/source/kernel-3.4.0/mediatek/preloader/out/mt_usbphy.o
                0xc201c9a0                mt_usb11_phy_savecurrent

.text.str2wide  0xc201c9e8       0x3c
 .text.str2wide
                0xffffffffffffffff       0x3c /media/source/kernel-3.4.0/mediatek/preloader/out/mt_usbtty.o

.text.ep_to_buf.constprop.0
                0xc201ca24       0x4c
 .text.ep_to_buf.constprop.0
                0xffffffffffffffff       0x4c /media/source/kernel-3.4.0/mediatek/preloader/out/mt_usbtty.o

.text.usb_alloc_urb
                0xc201ca70       0x78
 .text.usb_alloc_urb
                0xffffffffffffffff       0x78 /media/source/kernel-3.4.0/mediatek/preloader/out/mt_usbtty.o
                0xc201ca70                usb_alloc_urb

.text.usbdl_init
                0xc201cae8      0x454
 .text.usbdl_init
                0xffffffffffffffff      0x454 /media/source/kernel-3.4.0/mediatek/preloader/out/mt_usbtty.o
                0xc201cae8                usbdl_init

.text.tool_is_present
                0xc201cf3c       0x14
 .text.tool_is_present
                0xffffffffffffffff       0x14 /media/source/kernel-3.4.0/mediatek/preloader/out/mt_usbtty.o
                0xc201cf3c                tool_is_present

.text.tool_state_update
                0xc201cf50       0x14
 .text.tool_state_update
                0xffffffffffffffff       0x14 /media/source/kernel-3.4.0/mediatek/preloader/out/mt_usbtty.o
                0xc201cf50                tool_state_update

.text.usbdl_configured
                0xc201cf64       0x14
 .text.usbdl_configured
                0xffffffffffffffff       0x14 /media/source/kernel-3.4.0/mediatek/preloader/out/mt_usbtty.o
                0xc201cf64                usbdl_configured

.text.enable_highspeed
                0xc201cf78       0xbc
 .text.enable_highspeed
                0xffffffffffffffff       0xbc /media/source/kernel-3.4.0/mediatek/preloader/out/mt_usbtty.o
                0xc201cf78                enable_highspeed

.text.config_usbtty
                0xc201d034       0x6c
 .text.config_usbtty
                0xffffffffffffffff       0x6c /media/source/kernel-3.4.0/mediatek/preloader/out/mt_usbtty.o
                0xc201d034                config_usbtty

.text.service_interrupts
                0xc201d0a0       0x7c
 .text.service_interrupts
                0xffffffffffffffff       0x7c /media/source/kernel-3.4.0/mediatek/preloader/out/mt_usbtty.o
                0xc201d0a0                service_interrupts

.text.usbdl_poll
                0xc201d11c       0xd4
 .text.usbdl_poll
                0xffffffffffffffff       0xd4 /media/source/kernel-3.4.0/mediatek/preloader/out/mt_usbtty.o
                0xc201d11c                usbdl_poll

.text.usbdl_flush
                0xc201d1f0       0x78
 .text.usbdl_flush
                0xffffffffffffffff       0x78 /media/source/kernel-3.4.0/mediatek/preloader/out/mt_usbtty.o
                0xc201d1f0                usbdl_flush

.text.mt_usbtty_flush
                0xc201d268        0x4
 .text.mt_usbtty_flush
                0xffffffffffffffff        0x4 /media/source/kernel-3.4.0/mediatek/preloader/out/mt_usbtty.o
                0xc201d268                mt_usbtty_flush

.text.mt_usbtty_getcn
                0xc201d26c       0x80
 .text.mt_usbtty_getcn
                0xffffffffffffffff       0x80 /media/source/kernel-3.4.0/mediatek/preloader/out/mt_usbtty.o
                0xc201d26c                mt_usbtty_getcn

.text.mt_usbtty_putcn
                0xc201d2ec       0xa4
 .text.mt_usbtty_putcn
                0xffffffffffffffff       0xa4 /media/source/kernel-3.4.0/mediatek/preloader/out/mt_usbtty.o
                0xc201d2ec                mt_usbtty_putcn

.text.mt_usbtty_puts
                0xc201d390       0x78
 .text.mt_usbtty_puts
                0xffffffffffffffff       0x78 /media/source/kernel-3.4.0/mediatek/preloader/out/mt_usbtty.o
                0xc201d390                mt_usbtty_puts

.text.mt_usbtty_query_data_size
                0xc201d408       0x3c
 .text.mt_usbtty_query_data_size
                0xffffffffffffffff       0x3c /media/source/kernel-3.4.0/mediatek/preloader/out/mt_usbtty.o
                0xc201d408                mt_usbtty_query_data_size

.text.PAGE_NUM  0xc201d444       0x20
 .text.PAGE_NUM
                0xffffffffffffffff       0x20 /media/source/kernel-3.4.0/mediatek/preloader/out/nand.o
                0xc201d444                PAGE_NUM

.text.get_part_tab_from_complier
                0xc201d464       0xc0
 .text.get_part_tab_from_complier
                0xffffffffffffffff       0xc0 /media/source/kernel-3.4.0/mediatek/preloader/out/partition_mt.o
                0xc201d464                get_part_tab_from_complier

.text.pmt_get_part
                0xc201d524       0x90
 .text.pmt_get_part
                0xffffffffffffffff       0x90 /media/source/kernel-3.4.0/mediatek/preloader/out/partition_mt.o
                0xc201d524                pmt_get_part

.text.load_exist_part_tab
                0xc201d5b4      0x6c0
 .text.load_exist_part_tab
                0xffffffffffffffff      0x6c0 /media/source/kernel-3.4.0/mediatek/preloader/out/partition_mt.o
                0xc201d5b4                load_exist_part_tab

.text.pmt_init  0xc201dc74      0x4f0
 .text.pmt_init
                0xffffffffffffffff      0x4f0 /media/source/kernel-3.4.0/mediatek/preloader/out/partition_mt.o
                0xc201dc74                pmt_init

.text.part_init
                0xc201e164       0xcc
 .text.part_init
                0xffffffffffffffff       0xcc /media/source/kernel-3.4.0/mediatek/preloader/out/part.o
                0xc201e164                part_init

.text.part_get  0xc201e230       0x60
 .text.part_get
                0xffffffffffffffff       0x60 /media/source/kernel-3.4.0/mediatek/preloader/out/part.o
                0xc201e230                part_get

.text.part_load
                0xc201e290      0x234
 .text.part_load
                0xffffffffffffffff      0x234 /media/source/kernel-3.4.0/mediatek/preloader/out/part.o
                0xc201e290                part_load

.text.part_dump
                0xc201e4c4       0xac
 .text.part_dump
                0xffffffffffffffff       0xac /media/source/kernel-3.4.0/mediatek/preloader/out/part.o
                0xc201e4c4                part_dump

.text.platform_set_chrg_cur
                0xc201e570        0x4
 .text.platform_set_chrg_cur
                0xffffffffffffffff        0x4 /media/source/kernel-3.4.0/mediatek/preloader/out/platform.o
                0xc201e570                platform_set_chrg_cur

.text.usb_accessory_in
                0xc201e574       0x2c
 .text.usb_accessory_in
                0xffffffffffffffff       0x2c /media/source/kernel-3.4.0/mediatek/preloader/out/platform.o
                0xc201e574                usb_accessory_in

.text.usb_cable_in
                0xc201e5a0       0x80
 .text.usb_cable_in
                0xffffffffffffffff       0x80 /media/source/kernel-3.4.0/mediatek/preloader/out/platform.o
                0xc201e5a0                usb_cable_in

.text.platform_vusb_on
                0xc201e620      0x138
 .text.platform_vusb_on
                0xffffffffffffffff      0x138 /media/source/kernel-3.4.0/mediatek/preloader/out/platform.o
                0xc201e620                platform_vusb_on

.text.platform_set_boot_args
                0xc201e758      0x134
 .text.platform_set_boot_args
                0xffffffffffffffff      0x134 /media/source/kernel-3.4.0/mediatek/preloader/out/platform.o
                0xc201e758                platform_set_boot_args

.text.platform_wdt_kick
                0xc201e88c        0x4
 .text.platform_wdt_kick
                0xffffffffffffffff        0x4 /media/source/kernel-3.4.0/mediatek/preloader/out/platform.o
                0xc201e88c                platform_wdt_kick

.text.platform_wdt_all_kick
                0xc201e890       0x10
 .text.platform_wdt_all_kick
                0xffffffffffffffff       0x10 /media/source/kernel-3.4.0/mediatek/preloader/out/platform.o
                0xc201e890                platform_wdt_all_kick

.text.platform_download
                0xc201e8a0       0x34
 .text.platform_download
                0xffffffffffffffff       0x34 /media/source/kernel-3.4.0/mediatek/preloader/out/platform.o
                0xc201e8a0                platform_download

.text.platform_emergency_download
                0xc201e8d4       0x50
 .text.platform_emergency_download
                0xffffffffffffffff       0x50 /media/source/kernel-3.4.0/mediatek/preloader/out/platform.o
                0xc201e8d4                platform_emergency_download

.text.platform_get_mcp_id
                0xc201e924       0x28
 .text.platform_get_mcp_id
                0xffffffffffffffff       0x28 /media/source/kernel-3.4.0/mediatek/preloader/out/platform.o
                0xc201e924                platform_get_mcp_id

.text.platform_chip_ver
                0xc201e94c       0x60
 .text.platform_chip_ver
                0xffffffffffffffff       0x60 /media/source/kernel-3.4.0/mediatek/preloader/out/platform.o
                0xc201e94c                platform_chip_ver

.text.platform_com_wait_forever_check
                0xc201e9ac        0x8
 .text.platform_com_wait_forever_check
                0xffffffffffffffff        0x8 /media/source/kernel-3.4.0/mediatek/preloader/out/platform.o
                0xc201e9ac                platform_com_wait_forever_check

.text.platform_pre_init
                0xc201e9b4      0x13c
 .text.platform_pre_init
                0xffffffffffffffff      0x13c /media/source/kernel-3.4.0/mediatek/preloader/out/platform.o
                0xc201e9b4                platform_pre_init

.text.platform_init
                0xc201eaf0      0x1ec
 .text.platform_init
                0xffffffffffffffff      0x1ec /media/source/kernel-3.4.0/mediatek/preloader/out/platform.o
                0xc201eaf0                platform_init

.text.platform_post_init
                0xc201ecdc      0x278
 .text.platform_post_init
                0xffffffffffffffff      0x278 /media/source/kernel-3.4.0/mediatek/preloader/out/platform.o
                0xc201ecdc                platform_post_init

.text.platform_error_handler
                0xc201ef54       0x50
 .text.platform_error_handler
                0xffffffffffffffff       0x50 /media/source/kernel-3.4.0/mediatek/preloader/out/platform.o
                0xc201ef54                platform_error_handler

.text.platform_assert
                0xc201efa4       0x30
 .text.platform_assert
                0xffffffffffffffff       0x30 /media/source/kernel-3.4.0/mediatek/preloader/out/platform.o
                0xc201efa4                platform_assert

.text.mt_get_bus_freq
                0xc201efd4      0x108
 .text.mt_get_bus_freq
                0xffffffffffffffff      0x108 /media/source/kernel-3.4.0/mediatek/preloader/out/pll.o
                0xc201efd4                mt_get_bus_freq

.text.mt_pll_init
                0xc201f0dc      0x214
 .text.mt_pll_init
                0xffffffffffffffff      0x214 /media/source/kernel-3.4.0/mediatek/preloader/out/pll.o
                0xc201f0dc                mt_pll_init

.text.mt_pll_init2
                0xc201f2f0       0xcc
 .text.mt_pll_init2
                0xffffffffffffffff       0xcc /media/source/kernel-3.4.0/mediatek/preloader/out/pll.o
                0xc201f2f0                mt_pll_init2

.text.outchar   0xc201f3bc       0x34
 .text.outchar  0xffffffffffffffff       0x34 /media/source/kernel-3.4.0/mediatek/preloader/out/print.o

.text.outhex    0xc201f3f0       0x50
 .text.outhex   0xffffffffffffffff       0x50 /media/source/kernel-3.4.0/mediatek/preloader/out/print.o

.text.outdec    0xc201f440       0x3c
 .text.outdec   0xffffffffffffffff       0x3c /media/source/kernel-3.4.0/mediatek/preloader/out/print.o

.text.log_ctrl  0xc201f47c       0x64
 .text.log_ctrl
                0xffffffffffffffff       0x64 /media/source/kernel-3.4.0/mediatek/preloader/out/print.o
                0xc201f47c                log_ctrl

.text.log_status
                0xc201f4e0       0x18
 .text.log_status
                0xffffffffffffffff       0x18 /media/source/kernel-3.4.0/mediatek/preloader/out/print.o
                0xc201f4e0                log_status

.text.vprint    0xc201f4f8      0x200
 .text.vprint   0xffffffffffffffff      0x200 /media/source/kernel-3.4.0/mediatek/preloader/out/print.o
                0xc201f4f8                vprint

.text.print     0xc201f6f8       0x24
 .text.print    0xffffffffffffffff       0x24 /media/source/kernel-3.4.0/mediatek/preloader/out/print.o
                0xc201f6f8                print

.text.dbg_print
                0xc201f71c       0x1c
 .text.dbg_print
                0xffffffffffffffff       0x1c /media/source/kernel-3.4.0/mediatek/preloader/out/print.o
                0xc201f71c                dbg_print

.text.sec_auth  0xc201f738       0x60
 .text.sec_auth
                0xffffffffffffffff       0x60 /media/source/kernel-3.4.0/mediatek/preloader/out/sec_auth.o
                0xc201f738                sec_auth

.text.sec_hash  0xc201f798        0x4
 .text.sec_hash
                0xffffffffffffffff        0x4 /media/source/kernel-3.4.0/mediatek/preloader/out/sec_auth.o
                0xc201f798                sec_hash

.text.da_auth_init
                0xc201f79c       0x38
 .text.da_auth_init
                0xffffffffffffffff       0x38 /media/source/kernel-3.4.0/mediatek/preloader/out/sec_auth.o
                0xc201f79c                da_auth_init

.text.img_auth_init
                0xc201f7d4       0x38
 .text.img_auth_init
                0xffffffffffffffff       0x38 /media/source/kernel-3.4.0/mediatek/preloader/out/sec_auth.o
                0xc201f7d4                img_auth_init

.text.sec_boot_img_check
                0xc201f80c       0x48
 .text.sec_boot_img_check
                0xffffffffffffffff       0x48 /media/source/kernel-3.4.0/mediatek/preloader/out/sec_boot.o
                0xc201f80c                sec_boot_img_check

.text.sec_boot_check
                0xc201f854      0x214
 .text.sec_boot_check
                0xffffffffffffffff      0x214 /media/source/kernel-3.4.0/mediatek/preloader/out/sec_boot.o
                0xc201f854                sec_boot_check

.text.sec_ctrl_init
                0xc201fa68        0x4
 .text.sec_ctrl_init
                0xffffffffffffffff        0x4 /media/source/kernel-3.4.0/mediatek/preloader/out/sec_ctrl.o
                0xc201fa68                sec_ctrl_init

.text.sec_flashtool_cfg_init
                0xc201fa6c        0x4
 .text.sec_flashtool_cfg_init
                0xffffffffffffffff        0x4 /media/source/kernel-3.4.0/mediatek/preloader/out/sec_flashtool_cfg.o
                0xc201fa6c                sec_flashtool_cfg_init

.text.sec_key_init
                0xc201fa70       0xa4
 .text.sec_key_init
                0xffffffffffffffff       0xa4 /media/source/kernel-3.4.0/mediatek/preloader/out/sec_key.o
                0xc201fa70                sec_key_init

.text.sec_cfg_load
                0xc201fb14       0xf0
 .text.sec_cfg_load
                0xffffffffffffffff       0xf0 /media/source/kernel-3.4.0/mediatek/preloader/out/sec.o
                0xc201fb14                sec_cfg_load

.text.sec_cfg_save
                0xc201fc04       0xdc
 .text.sec_cfg_save
                0xffffffffffffffff       0xdc /media/source/kernel-3.4.0/mediatek/preloader/out/sec.o
                0xc201fc04                sec_cfg_save

.text.sec_lib_init
                0xc201fce0      0x1a0
 .text.sec_lib_init
                0xffffffffffffffff      0x1a0 /media/source/kernel-3.4.0/mediatek/preloader/out/sec.o
                0xc201fce0                sec_lib_init

.text.is_BR_cmd_disabled
                0xc201fe80       0x80
 .text.is_BR_cmd_disabled
                0xffffffffffffffff       0x80 /media/source/kernel-3.4.0/mediatek/preloader/out/sec.o
                0xc201fe80                is_BR_cmd_disabled

.text.sec_region_check
                0xc201ff00      0x114
 .text.sec_region_check
                0xffffffffffffffff      0x114 /media/source/kernel-3.4.0/mediatek/preloader/out/sec_region.o
                0xc201ff00                sec_region_check

.text.sec_rom_info_init
                0xc2020014       0x54
 .text.sec_rom_info_init
                0xffffffffffffffff       0x54 /media/source/kernel-3.4.0/mediatek/preloader/out/sec_rom_info.o
                0xc2020014                sec_rom_info_init

.text.factory_mode_valid
                0xc2020068       0x68
 .text.factory_mode_valid
                0xffffffffffffffff       0x68 /media/source/kernel-3.4.0/mediatek/preloader/out/sec_secroimg.o
                0xc2020068                factory_mode_valid

.text.sec_lib_read_secro
                0xc20200d0      0x148
 .text.sec_lib_read_secro
                0xffffffffffffffff      0x148 /media/source/kernel-3.4.0/mediatek/preloader/out/sec_secroimg.o
                0xc20200d0                sec_lib_read_secro

.text.sec2plname
                0xc2020218      0x258
 .text.sec2plname
                0xffffffffffffffff      0x258 /media/source/kernel-3.4.0/mediatek/preloader/out/sec_util.o
                0xc2020218                sec2plname

.text.sec_util_get_secro_buf
                0xc2020470        0x8
 .text.sec_util_get_secro_buf
                0xffffffffffffffff        0x8 /media/source/kernel-3.4.0/mediatek/preloader/out/sec_util.o
                0xc2020470                sec_util_get_secro_buf

.text.sec_util_get_img_buf
                0xc2020478        0x8
 .text.sec_util_get_img_buf
                0xffffffffffffffff        0x8 /media/source/kernel-3.4.0/mediatek/preloader/out/sec_util.o
                0xc2020478                sec_util_get_img_buf

.text.sec_util_get_chunk_buf
                0xc2020480        0x8
 .text.sec_util_get_chunk_buf
                0xffffffffffffffff        0x8 /media/source/kernel-3.4.0/mediatek/preloader/out/sec_util.o
                0xc2020480                sec_util_get_chunk_buf

.text.sec_util_get_working_buf
                0xc2020488        0x8
 .text.sec_util_get_working_buf
                0xffffffffffffffff        0x8 /media/source/kernel-3.4.0/mediatek/preloader/out/sec_util.o
                0xc2020488                sec_util_get_working_buf

.text.sec_util_read_image
                0xc2020490      0x168
 .text.sec_util_read_image
                0xffffffffffffffff      0x168 /media/source/kernel-3.4.0/mediatek/preloader/out/sec_util.o
                0xc2020490                sec_util_read_image

.text.sec_util_brom_download_recovery_check
                0xc20205f8      0x24c
 .text.sec_util_brom_download_recovery_check
                0xffffffffffffffff      0x24c /media/source/kernel-3.4.0/mediatek/preloader/out/sec_util.o
                0xc20205f8                sec_util_brom_download_recovery_check

.text.sec_set_usb_handshake_status
                0xc2020844       0x14
 .text.sec_set_usb_handshake_status
                0xffffffffffffffff       0x14 /media/source/kernel-3.4.0/mediatek/preloader/out/sec_util.o
                0xc2020844                sec_set_usb_handshake_status

.text.strchr    0xc2020858       0x28
 .text.strchr   0xffffffffffffffff       0x28 /media/source/kernel-3.4.0/mediatek/preloader/out/stdlib.o
                0xc2020858                strchr

.text.atoi      0xc2020880       0x88
 .text.atoi     0xffffffffffffffff       0x88 /media/source/kernel-3.4.0/mediatek/preloader/out/stdlib.o
                0xc2020880                atoi

.text.strlen    0xc2020908       0x20
 .text.strlen   0xffffffffffffffff       0x20 /media/source/kernel-3.4.0/mediatek/preloader/out/string.o
                0xc2020908                strlen

.text.strcmp    0xc2020928       0x28
 .text.strcmp   0xffffffffffffffff       0x28 /media/source/kernel-3.4.0/mediatek/preloader/out/string.o
                0xc2020928                strcmp

.text.strncmp   0xc2020950       0x44
 .text.strncmp  0xffffffffffffffff       0x44 /media/source/kernel-3.4.0/mediatek/preloader/out/string.o
                0xc2020950                strncmp

.text.memset    0xc2020994       0x18
 .text.memset   0xffffffffffffffff       0x18 /media/source/kernel-3.4.0/mediatek/preloader/out/string.o
                0xc2020994                memset

.text.memcpy    0xc20209ac       0x20
 .text.memcpy   0xffffffffffffffff       0x20 /media/source/kernel-3.4.0/mediatek/preloader/out/string.o
                0xc20209ac                memcpy

.text.memcmp    0xc20209cc       0x2c
 .text.memcmp   0xffffffffffffffff       0x2c /media/source/kernel-3.4.0/mediatek/preloader/out/string.o
                0xc20209cc                memcmp

.text.serial_setbrg
                0xc20209f8       0xa8
 .text.serial_setbrg
                0xffffffffffffffff       0xa8 /media/source/kernel-3.4.0/mediatek/preloader/out/uart.o
                0xc20209f8                serial_setbrg

.text.serial_nonblock_getc
                0xc2020aa0       0x18
 .text.serial_nonblock_getc
                0xffffffffffffffff       0x18 /media/source/kernel-3.4.0/mediatek/preloader/out/uart.o
                0xc2020aa0                serial_nonblock_getc

.text.mtk_serial_set_current_uart
                0xc2020ab8       0x64
 .text.mtk_serial_set_current_uart
                0xffffffffffffffff       0x64 /media/source/kernel-3.4.0/mediatek/preloader/out/uart.o
                0xc2020ab8                mtk_serial_set_current_uart

.text.mtk_uart_init
                0xc2020b1c       0xc8
 .text.mtk_uart_init
                0xffffffffffffffff       0xc8 /media/source/kernel-3.4.0/mediatek/preloader/out/uart.o
                0xc2020b1c                mtk_uart_init

.text.PutUARTByte
                0xc2020be4       0x40
 .text.PutUARTByte
                0xffffffffffffffff       0x40 /media/source/kernel-3.4.0/mediatek/preloader/out/uart.o
                0xc2020be4                PutUARTByte

.text.GetUARTBytes
                0xc2020c24       0x84
 .text.GetUARTBytes
                0xffffffffffffffff       0x84 /media/source/kernel-3.4.0/mediatek/preloader/out/uart.o
                0xc2020c24                GetUARTBytes

.text.seclib_sbc_enabled
                0xc2020ca8       0x60
 .text.seclib_sbc_enabled
                0xffffffffffffffff       0x60 /media/source/kernel-3.4.0/mediatek/platform/mt6577/preloader/src/SecLib.a(efuse.o)
                0xc2020ca8                seclib_sbc_enabled

.text.seclib_daa_enabled
                0xc2020d08       0x60
 .text.seclib_daa_enabled
                0xffffffffffffffff       0x60 /media/source/kernel-3.4.0/mediatek/platform/mt6577/preloader/src/SecLib.a(efuse.o)
                0xc2020d08                seclib_daa_enabled

.text.seclib_sla_enabled
                0xc2020d68       0x60
 .text.seclib_sla_enabled
                0xffffffffffffffff       0x60 /media/source/kernel-3.4.0/mediatek/platform/mt6577/preloader/src/SecLib.a(efuse.o)
                0xc2020d68                seclib_sla_enabled

.text.seclib_3g_disable
                0xc2020dc8       0x14
 .text.seclib_3g_disable
                0xffffffffffffffff       0x14 /media/source/kernel-3.4.0/mediatek/platform/mt6577/preloader/src/SecLib.a(efuse.o)
                0xc2020dc8                seclib_3g_disable

.text.seclib_get_param
                0xc2020ddc      0x1e0
 .text.seclib_get_param
                0xffffffffffffffff      0x1e0 /media/source/kernel-3.4.0/mediatek/platform/mt6577/preloader/src/SecLib.a(efuse.o)
                0xc2020ddc                seclib_get_param

.text.seclib_brom_meta_mode
                0xc2020fbc       0x50
 .text.seclib_brom_meta_mode
                0xffffffffffffffff       0x50 /media/source/kernel-3.4.0/mediatek/platform/mt6577/preloader/src/SecLib.a(meta.o)
                0xc2020fbc                seclib_brom_meta_mode

.text.seclib_sec_boot_enabled
                0xc202100c       0xe8
 .text.seclib_sec_boot_enabled
                0xffffffffffffffff       0xe8 /media/source/kernel-3.4.0/mediatek/platform/mt6577/preloader/src/SecLib.a(seclib_boot.o)
                0xc202100c                seclib_sec_boot_enabled

.text.seclib_image_check
                0xc20210f4      0x2e4
 .text.seclib_image_check
                0xffffffffffffffff      0x2e4 /media/source/kernel-3.4.0/mediatek/platform/mt6577/preloader/src/SecLib.a(seclib_boot.o)
                0xc20210f4                seclib_image_check

.text.seclib_sec_usbdl_enabled
                0xc20213d8       0x8c
 .text.seclib_sec_usbdl_enabled
                0xffffffffffffffff       0x8c /media/source/kernel-3.4.0/mediatek/platform/mt6577/preloader/src/SecLib.a(seclib_dl.o)
                0xc20213d8                seclib_sec_usbdl_enabled

.text.seclib_image_hash_compute
                0xc2021464       0x64
 .text.seclib_image_hash_compute
                0xffffffffffffffff       0x64 /media/source/kernel-3.4.0/mediatek/platform/mt6577/preloader/src/SecLib.a(seclib_img_hash.o)
                0xc2021464                seclib_image_hash_compute

.text.seclib_image_allocate_mem
                0xc20214c8       0x9c
 .text.seclib_image_allocate_mem
                0xffffffffffffffff       0x9c /media/source/kernel-3.4.0/mediatek/platform/mt6577/preloader/src/SecLib.a(seclib_img_verify.o)

.text.seclib_image_fread
                0xc2021564       0xc0
 .text.seclib_image_fread
                0xffffffffffffffff       0xc0 /media/source/kernel-3.4.0/mediatek/platform/mt6577/preloader/src/SecLib.a(seclib_img_verify.o)

.text.seclib_image_hash_only
                0xc2021624      0x130
 .text.seclib_image_hash_only
                0xffffffffffffffff      0x130 /media/source/kernel-3.4.0/mediatek/platform/mt6577/preloader/src/SecLib.a(seclib_img_verify.o)
                0xc2021624                seclib_image_hash_only

.text.seclib_image_search_extension
                0xc2021754      0x170
 .text.seclib_image_search_extension
                0xffffffffffffffff      0x170 /media/source/kernel-3.4.0/mediatek/platform/mt6577/preloader/src/SecLib.a(seclib_img_verify.o)
                0xc2021754                seclib_image_search_extension

.text.seclib_image_verify
                0xc20218c4      0x698
 .text.seclib_image_verify
                0xffffffffffffffff      0x698 /media/source/kernel-3.4.0/mediatek/platform/mt6577/preloader/src/SecLib.a(seclib_img_verify.o)
                0xc20218c4                seclib_image_verify

.text.seclib_read_sbc_key
                0xc2021f5c       0x6c
 .text.seclib_read_sbc_key
                0xffffffffffffffff       0x6c /media/source/kernel-3.4.0/mediatek/platform/mt6577/preloader/src/SecLib.a(seclib_key.o)
                0xc2021f5c                seclib_read_sbc_key

.text.seclib_read_sec_cmd_cfg
                0xc2021fc8       0x74
 .text.seclib_read_sec_cmd_cfg
                0xffffffffffffffff       0x74 /media/source/kernel-3.4.0/mediatek/platform/mt6577/preloader/src/SecLib.a(seclib_key.o)
                0xc2021fc8                seclib_read_sec_cmd_cfg

.text.seclib_sej_init
                0xc202203c       0x20
 .text.seclib_sej_init
                0xffffffffffffffff       0x20 /media/source/kernel-3.4.0/mediatek/platform/mt6577/preloader/src/SecLib.a(seclib.o)
                0xc202203c                seclib_sej_init

.text.seclib_cust_init
                0xc202205c       0x84
 .text.seclib_cust_init
                0xffffffffffffffff       0x84 /media/source/kernel-3.4.0/mediatek/platform/mt6577/preloader/src/SecLib.a(seclib.o)
                0xc202205c                seclib_cust_init

.text.seclib_check
                0xc20220e0        0x4
 .text.seclib_check
                0xffffffffffffffff        0x4 /media/source/kernel-3.4.0/mediatek/platform/mt6577/preloader/src/SecLib.a(seclib.o)
                0xc20220e0                seclib_check

.text.seclib_init
                0xc20220e4      0x2d0
 .text.seclib_init
                0xffffffffffffffff      0x2d0 /media/source/kernel-3.4.0/mediatek/platform/mt6577/preloader/src/SecLib.a(seclib.o)
                0xc20220e4                seclib_init

.text.seclib_region_check
                0xc20223b4       0x58
 .text.seclib_region_check
                0xffffffffffffffff       0x58 /media/source/kernel-3.4.0/mediatek/platform/mt6577/preloader/src/SecLib.a(seclib_region.o)
                0xc20223b4                seclib_region_check

.text.seclib_secroimg_read
                0xc202240c      0x108
 .text.seclib_secroimg_read
                0xffffffffffffffff      0x108 /media/source/kernel-3.4.0/mediatek/platform/mt6577/preloader/src/SecLib.a(seclib_secroimg.o)
                0xc202240c                seclib_secroimg_read

.text.sp_read_swotp
                0xc2022514       0x74
 .text.sp_read_swotp
                0xffffffffffffffff       0x74 /media/source/kernel-3.4.0/mediatek/platform/mt6577/preloader/src/SecLib.a(seclib_sej_export.o)
                0xc2022514                sp_read_swotp

.text.sp_sej_enc
                0xc2022588       0xa8
 .text.sp_sej_enc
                0xffffffffffffffff       0xa8 /media/source/kernel-3.4.0/mediatek/platform/mt6577/preloader/src/SecLib.a(seclib_sej_export.o)
                0xc2022588                sp_sej_enc

.text.sp_sej_dec
                0xc2022630       0xc4
 .text.sp_sej_dec
                0xffffffffffffffff       0xc4 /media/source/kernel-3.4.0/mediatek/platform/mt6577/preloader/src/SecLib.a(seclib_sej_export.o)
                0xc2022630                sp_sej_dec

.text.sp_sej_init
                0xc20226f4       0x7c
 .text.sp_sej_init
                0xffffffffffffffff       0x7c /media/source/kernel-3.4.0/mediatek/platform/mt6577/preloader/src/SecLib.a(seclib_sej_export.o)
                0xc20226f4                sp_sej_init

.text.sp_check_platform
                0xc2022770        0x4
 .text.sp_check_platform
                0xffffffffffffffff        0x4 /media/source/kernel-3.4.0/mediatek/platform/mt6577/preloader/src/SecLib.a(seclib_sej_export.o)
                0xc2022770                sp_check_platform

.text.seclib_image_hash_dump
                0xc2022774       0x68
 .text.seclib_image_hash_dump
                0xffffffffffffffff       0x68 /media/source/kernel-3.4.0/mediatek/platform/mt6577/preloader/src/SecLib.a(seclib_util.o)
                0xc2022774                seclib_image_hash_dump

.text.get_sec_cfg_cnt_size
                0xc20227dc        0x8
 .text.get_sec_cfg_cnt_size
                0xffffffffffffffff        0x8 /media/source/kernel-3.4.0/mediatek/platform/mt6577/preloader/src/SecLib.a(seclib_util.o)
                0xc20227dc                get_sec_cfg_cnt_size

.text.SEJ_V3_Init
                0xc20227e4      0x11c
 .text.SEJ_V3_Init
                0xffffffffffffffff      0x11c /media/source/kernel-3.4.0/mediatek/platform/mt6577/preloader/src/SecLib.a(sej_hk.o)
                0xc20227e4                SEJ_V3_Init

.text.SEJ_V3_Run
                0xc2022900       0x84
 .text.SEJ_V3_Run
                0xffffffffffffffff       0x84 /media/source/kernel-3.4.0/mediatek/platform/mt6577/preloader/src/SecLib.a(sej_hk.o)
                0xc2022900                SEJ_V3_Run

.text.SEJ_V3_Terminate
                0xc2022984       0x38
 .text.SEJ_V3_Terminate
                0xffffffffffffffff       0x38 /media/source/kernel-3.4.0/mediatek/platform/mt6577/preloader/src/SecLib.a(sej_hk.o)
                0xc2022984                SEJ_V3_Terminate

.text.sej_set_clk
                0xc20229bc       0x2c
 .text.sej_set_clk
                0xffffffffffffffff       0x2c /media/source/kernel-3.4.0/mediatek/platform/mt6577/preloader/src/SecLib.a(sej_sk.o)
                0xc20229bc                sej_set_clk

.text.sej_set_iv
                0xc20229e8       0x24
 .text.sej_set_iv
                0xffffffffffffffff       0x24 /media/source/kernel-3.4.0/mediatek/platform/mt6577/preloader/src/SecLib.a(sej_sk.o)
                0xc20229e8                sej_set_iv

.text.sej_set_mode
                0xc2022a0c       0x6c
 .text.sej_set_mode
                0xffffffffffffffff       0x6c /media/source/kernel-3.4.0/mediatek/platform/mt6577/preloader/src/SecLib.a(sej_sk.o)
                0xc2022a0c                sej_set_mode

.text.sej_set_key
                0xc2022a78      0x10c
 .text.sej_set_key
                0xffffffffffffffff      0x10c /media/source/kernel-3.4.0/mediatek/platform/mt6577/preloader/src/SecLib.a(sej_sk.o)
                0xc2022a78                sej_set_key

.text.sej_do_aes
                0xc2022b84      0x10c
 .text.sej_do_aes
                0xffffffffffffffff      0x10c /media/source/kernel-3.4.0/mediatek/platform/mt6577/preloader/src/SecLib.a(sej_sk.o)
                0xc2022b84                sej_do_aes

.text.sej_deinit
                0xc2022c90       0x1c
 .text.sej_deinit
                0xffffffffffffffff       0x1c /media/source/kernel-3.4.0/mediatek/platform/mt6577/preloader/src/SecLib.a(sej_sk.o)
                0xc2022c90                sej_deinit

.text.sej_init  0xc2022cac      0x120
 .text.sej_init
                0xffffffffffffffff      0x120 /media/source/kernel-3.4.0/mediatek/platform/mt6577/preloader/src/SecLib.a(sej_sk.o)
                0xc2022cac                sej_init

.text.get_ul    0xc2022dcc       0x24
 .text.get_ul   0xffffffffffffffff       0x24 /media/source/kernel-3.4.0/mediatek/platform/mt6577/preloader/src/SecLib.a(sha1.o)
                0xc2022dcc                get_ul

.text.hash_process
                0xc2022df0     0x13d4
 .text.hash_process
                0xffffffffffffffff     0x13d4 /media/source/kernel-3.4.0/mediatek/platform/mt6577/preloader/src/SecLib.a(sha1.o)

.text.set_ul    0xc20241c4       0x20
 .text.set_ul   0xffffffffffffffff       0x20 /media/source/kernel-3.4.0/mediatek/platform/mt6577/preloader/src/SecLib.a(sha1.o)
                0xc20241c4                set_ul

.text.hash_starts
                0xc20241e4       0x4c
 .text.hash_starts
                0xffffffffffffffff       0x4c /media/source/kernel-3.4.0/mediatek/platform/mt6577/preloader/src/SecLib.a(sha1.o)
                0xc20241e4                hash_starts

.text.hash_update
                0xc2024230       0xbc
 .text.hash_update
                0xffffffffffffffff       0xbc /media/source/kernel-3.4.0/mediatek/platform/mt6577/preloader/src/SecLib.a(sha1.o)
                0xc2024230                hash_update

.text.hash_finish
                0xc20242ec       0x98
 .text.hash_finish
                0xffffffffffffffff       0x98 /media/source/kernel-3.4.0/mediatek/platform/mt6577/preloader/src/SecLib.a(sha1.o)
                0xc20242ec                hash_finish

.text.sha1      0xc2024384       0x50
 .text.sha1     0xffffffffffffffff       0x50 /media/source/kernel-3.4.0/mediatek/platform/mt6577/preloader/src/SecLib.a(sha1.o)
                0xc2024384                sha1

.text.get_seccfg_cipher_len
                0xc20243d4        0x8
 .text.get_seccfg_cipher_len
                0xffffffffffffffff        0x8 /media/source/kernel-3.4.0/mediatek/platform/mt6577/preloader/src/SecLib.a(seccfg_crypto.o)
                0xc20243d4                get_seccfg_cipher_len

.text.seclib_mtk_rsa_n_key_len
                0xc20243dc        0x8
 .text.seclib_mtk_rsa_n_key_len
                0xffffffffffffffff        0x8 /media/source/kernel-3.4.0/mediatek/platform/mt6577/preloader/src/security/auth/DaVerifyLib.a(auth.o)
                0xc20243dc                seclib_mtk_rsa_n_key_len

.text.seclib_mtk_rsa_e_key_len
                0xc20243e4        0x8
 .text.seclib_mtk_rsa_e_key_len
                0xffffffffffffffff        0x8 /media/source/kernel-3.4.0/mediatek/platform/mt6577/preloader/src/security/auth/DaVerifyLib.a(auth.o)
                0xc20243e4                seclib_mtk_rsa_e_key_len

.text.seclib_rsa_init
                0xc20243ec       0xf0
 .text.seclib_rsa_init
                0xffffffffffffffff       0xf0 /media/source/kernel-3.4.0/mediatek/platform/mt6577/preloader/src/security/auth/DaVerifyLib.a(auth.o)
                0xc20243ec                seclib_rsa_init

.text.seclib_rsa_verify
                0xc20244dc       0xe8
 .text.seclib_rsa_verify
                0xffffffffffffffff       0xe8 /media/source/kernel-3.4.0/mediatek/platform/mt6577/preloader/src/security/auth/DaVerifyLib.a(auth.o)
                0xc20244dc                seclib_rsa_verify

.text.bgn_read_str
                0xc20245c4      0x1f4
 .text.bgn_read_str
                0xffffffffffffffff      0x1f4 /media/source/kernel-3.4.0/mediatek/platform/mt6577/preloader/src/security/auth/DaVerifyLib.a(bgn_io.o)
                0xc20245c4                bgn_read_str

.text.bgn_read_bin
                0xc20247b8       0xa0
 .text.bgn_read_bin
                0xffffffffffffffff       0xa0 /media/source/kernel-3.4.0/mediatek/platform/mt6577/preloader/src/security/auth/DaVerifyLib.a(bgn_io.o)
                0xc20247b8                bgn_read_bin

.text.bgn_write_bin
                0xc2024858       0x78
 .text.bgn_write_bin
                0xffffffffffffffff       0x78 /media/source/kernel-3.4.0/mediatek/platform/mt6577/preloader/src/security/auth/DaVerifyLib.a(bgn_io.o)
                0xc2024858                bgn_write_bin

.text.bgn_grow  0xc20248d0       0x88
 .text.bgn_grow
                0xffffffffffffffff       0x88 /media/source/kernel-3.4.0/mediatek/platform/mt6577/preloader/src/security/auth/DaVerifyLib.a(bgn_util.o)
                0xc20248d0                bgn_grow

.text.bgn_copy  0xc2024958       0x94
 .text.bgn_copy
                0xffffffffffffffff       0x94 /media/source/kernel-3.4.0/mediatek/platform/mt6577/preloader/src/security/auth/DaVerifyLib.a(bgn_util.o)
                0xc2024958                bgn_copy

.text.bgn_lset  0xc20249ec       0x58
 .text.bgn_lset
                0xffffffffffffffff       0x58 /media/source/kernel-3.4.0/mediatek/platform/mt6577/preloader/src/security/auth/DaVerifyLib.a(bgn_util.o)
                0xc20249ec                bgn_lset

.text.bgn_msb   0xc2024a44       0x64
 .text.bgn_msb  0xffffffffffffffff       0x64 /media/source/kernel-3.4.0/mediatek/platform/mt6577/preloader/src/security/auth/DaVerifyLib.a(bgn_util.o)
                0xc2024a44                bgn_msb

.text.bgn_size  0xc2024aa8       0x14
 .text.bgn_size
                0xffffffffffffffff       0x14 /media/source/kernel-3.4.0/mediatek/platform/mt6577/preloader/src/security/auth/DaVerifyLib.a(bgn_util.o)
                0xc2024aa8                bgn_size

.text.bgn_shift_l
                0xc2024abc      0x108
 .text.bgn_shift_l
                0xffffffffffffffff      0x108 /media/source/kernel-3.4.0/mediatek/platform/mt6577/preloader/src/security/auth/DaVerifyLib.a(bgn_util.o)
                0xc2024abc                bgn_shift_l

.text.bgn_shift_r
                0xc2024bc4       0xd4
 .text.bgn_shift_r
                0xffffffffffffffff       0xd4 /media/source/kernel-3.4.0/mediatek/platform/mt6577/preloader/src/security/auth/DaVerifyLib.a(bgn_util.o)
                0xc2024bc4                bgn_shift_r

.text.bgn_cmp_abs
                0xc2024c98       0xd0
 .text.bgn_cmp_abs
                0xffffffffffffffff       0xd0 /media/source/kernel-3.4.0/mediatek/platform/mt6577/preloader/src/security/auth/DaVerifyLib.a(bgn_util.o)
                0xc2024c98                bgn_cmp_abs

.text.bgn_cmp_num
                0xc2024d68      0x100
 .text.bgn_cmp_num
                0xffffffffffffffff      0x100 /media/source/kernel-3.4.0/mediatek/platform/mt6577/preloader/src/security/auth/DaVerifyLib.a(bgn_util.o)
                0xc2024d68                bgn_cmp_num

.text.bgn_cmp_int
                0xc2024e68       0x40
 .text.bgn_cmp_int
                0xffffffffffffffff       0x40 /media/source/kernel-3.4.0/mediatek/platform/mt6577/preloader/src/security/auth/DaVerifyLib.a(bgn_util.o)
                0xc2024e68                bgn_cmp_int

.text.bgn_add_abs
                0xc2024ea8      0x140
 .text.bgn_add_abs
                0xffffffffffffffff      0x140 /media/source/kernel-3.4.0/mediatek/platform/mt6577/preloader/src/security/auth/DaVerifyLib.a(bgn_util.o)
                0xc2024ea8                bgn_add_abs

.text.bgn_sub_hlp
                0xc2024fe8       0x80
 .text.bgn_sub_hlp
                0xffffffffffffffff       0x80 /media/source/kernel-3.4.0/mediatek/platform/mt6577/preloader/src/security/auth/DaVerifyLib.a(bgn_util.o)
                0xc2024fe8                bgn_sub_hlp

.text.bgn_sub_abs
                0xc2025068       0xd0
 .text.bgn_sub_abs
                0xffffffffffffffff       0xd0 /media/source/kernel-3.4.0/mediatek/platform/mt6577/preloader/src/security/auth/DaVerifyLib.a(bgn_util.o)
                0xc2025068                bgn_sub_abs

.text.bgn_add_bgn
                0xc2025138       0x80
 .text.bgn_add_bgn
                0xffffffffffffffff       0x80 /media/source/kernel-3.4.0/mediatek/platform/mt6577/preloader/src/security/auth/DaVerifyLib.a(bgn_util.o)
                0xc2025138                bgn_add_bgn

.text.bgn_sub_bgn
                0xc20251b8       0x84
 .text.bgn_sub_bgn
                0xffffffffffffffff       0x84 /media/source/kernel-3.4.0/mediatek/platform/mt6577/preloader/src/security/auth/DaVerifyLib.a(bgn_util.o)
                0xc20251b8                bgn_sub_bgn

.text.bgn_add_int
                0xc202523c       0x40
 .text.bgn_add_int
                0xffffffffffffffff       0x40 /media/source/kernel-3.4.0/mediatek/platform/mt6577/preloader/src/security/auth/DaVerifyLib.a(bgn_util.o)
                0xc202523c                bgn_add_int

.text.bgn_sub_int
                0xc202527c       0x40
 .text.bgn_sub_int
                0xffffffffffffffff       0x40 /media/source/kernel-3.4.0/mediatek/platform/mt6577/preloader/src/security/auth/DaVerifyLib.a(bgn_util.o)
                0xc202527c                bgn_sub_int

.text.bgn_mul_hlp
                0xc20252bc      0xa04
 .text.bgn_mul_hlp
                0xffffffffffffffff      0xa04 /media/source/kernel-3.4.0/mediatek/platform/mt6577/preloader/src/security/auth/DaVerifyLib.a(bgn_util.o)
                0xc20252bc                bgn_mul_hlp

.text.bgn_mul_bgn
                0xc2025cc0      0x154
 .text.bgn_mul_bgn
                0xffffffffffffffff      0x154 /media/source/kernel-3.4.0/mediatek/platform/mt6577/preloader/src/security/auth/DaVerifyLib.a(bgn_util.o)
                0xc2025cc0                bgn_mul_bgn

.text.bgn_mul_int
                0xc2025e14       0x2c
 .text.bgn_mul_int
                0xffffffffffffffff       0x2c /media/source/kernel-3.4.0/mediatek/platform/mt6577/preloader/src/security/auth/DaVerifyLib.a(bgn_util.o)
                0xc2025e14                bgn_mul_int

.text.bgn_div_bgn
                0xc2025e40      0x5d0
 .text.bgn_div_bgn
                0xffffffffffffffff      0x5d0 /media/source/kernel-3.4.0/mediatek/platform/mt6577/preloader/src/security/auth/DaVerifyLib.a(bgn_util.o)
                0xc2025e40                bgn_div_bgn

.text.bgn_mod_bgn
                0xc2026410       0xb4
 .text.bgn_mod_bgn
                0xffffffffffffffff       0xb4 /media/source/kernel-3.4.0/mediatek/platform/mt6577/preloader/src/security/auth/DaVerifyLib.a(bgn_util.o)
                0xc2026410                bgn_mod_bgn

.text.rsa_pub   0xc20264c4       0xb0
 .text.rsa_pub  0xffffffffffffffff       0xb0 /media/source/kernel-3.4.0/mediatek/platform/mt6577/preloader/src/security/auth/DaVerifyLib.a(rsa.o)
                0xc20264c4                rsa_pub

.text.rsa_verify
                0xc2026574       0xcc
 .text.rsa_verify
                0xffffffffffffffff       0xcc /media/source/kernel-3.4.0/mediatek/platform/mt6577/preloader/src/security/auth/DaVerifyLib.a(rsa.o)
                0xc2026574                rsa_verify

.text.malloc    0xc2026640       0xb8
 .text.malloc   0xffffffffffffffff       0xb8 /media/source/kernel-3.4.0/mediatek/platform/mt6577/preloader/src/security/auth/DaVerifyLib.a(stdlib.o)
                0xc2026640                malloc

.text.free      0xc20266f8        0x4
 .text.free     0xffffffffffffffff        0x4 /media/source/kernel-3.4.0/mediatek/platform/mt6577/preloader/src/security/auth/DaVerifyLib.a(stdlib.o)
                0xc20266f8                free

.text.bgn_init  0xc20266fc       0x18
 .text.bgn_init
                0xffffffffffffffff       0x18 /media/source/kernel-3.4.0/mediatek/platform/mt6577/preloader/src/security/auth/DaVerifyLib.a(bgn_core.o)
                0xc20266fc                bgn_init

.text.bgn_free  0xc2026714       0x44
 .text.bgn_free
                0xffffffffffffffff       0x44 /media/source/kernel-3.4.0/mediatek/platform/mt6577/preloader/src/security/auth/DaVerifyLib.a(bgn_core.o)
                0xc2026714                bgn_free

.text.bgn_exp_mod
                0xc2026758      0x400
 .text.bgn_exp_mod
                0xffffffffffffffff      0x400 /media/source/kernel-3.4.0/mediatek/platform/mt6577/preloader/src/security/auth/DaVerifyLib.a(bgn_core.o)
                0xc2026758                bgn_exp_mod

.text.montg_init
                0xc2026b58       0x40
 .text.montg_init
                0xffffffffffffffff       0x40 /media/source/kernel-3.4.0/mediatek/platform/mt6577/preloader/src/security/auth/DaVerifyLib.a(montg.o)
                0xc2026b58                montg_init

.text.montg_mul
                0xc2026b98      0x140
 .text.montg_mul
                0xffffffffffffffff      0x140 /media/source/kernel-3.4.0/mediatek/platform/mt6577/preloader/src/security/auth/DaVerifyLib.a(montg.o)
                0xc2026b98                montg_mul

.text.montg_red
                0xc2026cd8       0x40
 .text.montg_red
                0xffffffffffffffff       0x40 /media/source/kernel-3.4.0/mediatek/platform/mt6577/preloader/src/security/auth/DaVerifyLib.a(montg.o)
                0xc2026cd8                montg_red

.rodata         0xc2026d18       0x24
 .rodata        0xc2026d18        0x4 /media/source/kernel-3.4.0/mediatek/preloader/out/download.o
 .rodata        0xc2026d1c       0x20 /media/source/kernel-3.4.0/mediatek/preloader/out/msdc.o

.rodata.str1.1  0xc2026d3c     0x3508
 ** merge strings
                0xc2026d3c     0x3508

.rodata.tran_mant
                0xc202a244       0x10
 .rodata.tran_mant
                0xc202a244       0x10 /media/source/kernel-3.4.0/mediatek/preloader/out/mmc_core.o

.rodata.tran_exp
                0xc202a254       0x20
 .rodata.tran_exp
                0xc202a254       0x20 /media/source/kernel-3.4.0/mediatek/preloader/out/mmc_core.o

.rodata.g_mmcTable
                0xc202a274       0x1c
 .rodata.g_mmcTable
                0xc202a274       0x1c /media/source/kernel-3.4.0/mediatek/preloader/out/mmc_core.o

.rodata.msdc_rsp
                0xc202a290       0x24
 .rodata.msdc_rsp
                0xc202a290       0x24 /media/source/kernel-3.4.0/mediatek/preloader/out/msdc.o

.rodata.__func__.1407
                0xc202a2b4       0x18
 .rodata.__func__.1407
                0xc202a2b4       0x18 /media/source/kernel-3.4.0/mediatek/preloader/out/partition_mt.o

.rodata.__func__.1430
                0xc202a2cc       0x14
 .rodata.__func__.1430
                0xc202a2cc       0x14 /media/source/kernel-3.4.0/mediatek/preloader/out/partition_mt.o

.rodata.sys_stack_sz
                0xc202a2e0        0x4
 .rodata.sys_stack_sz
                0xc202a2e0        0x4 /media/source/kernel-3.4.0/mediatek/preloader/out/platform.o
                0xc202a2e0                sys_stack_sz

.rodata.digits.1233
                0xc202a2e4        0xb
 .rodata.digits.1233
                0xc202a2e4        0xb /media/source/kernel-3.4.0/mediatek/preloader/out/stdlib.o

.rodata.Mask_Index_Mapping
                0xc202a2f0       0x64
 .rodata.Mask_Index_Mapping
                0xc202a2f0       0x64 /media/source/kernel-3.4.0/mediatek/platform/mt6577/preloader/src/SecLib.a(efuse.o)
                0xc202a2f0                Mask_Index_Mapping

.rodata.g_AC_FIXED_PATTERN
                0xc202a354       0x30
 .rodata.g_AC_FIXED_PATTERN
                0xc202a354       0x30 /media/source/kernel-3.4.0/mediatek/platform/mt6577/preloader/src/SecLib.a(sej_hk.o)

.rodata.padding
                0xc202a384       0x40
 .rodata.padding
                0xc202a384       0x40 /media/source/kernel-3.4.0/mediatek/platform/mt6577/preloader/src/SecLib.a(sha1.o)

.data           0xc202a3c4       0x48
 .data          0xc202a3c4       0x38 /media/source/kernel-3.4.0/mediatek/preloader/out/dramc_dqs_gw.o
 .data          0xc202a3fc        0x8 /media/source/kernel-3.4.0/mediatek/preloader/out/handshake_uart.o
 .data          0xc202a404        0x8 /media/source/kernel-3.4.0/mediatek/preloader/out/handshake_usb.o

.data.msdc_cap  0xc202a40c       0x10
 .data.msdc_cap
                0xc202a40c       0x10 /media/source/kernel-3.4.0/mediatek/preloader/out/cust_msdc.o
                0xc202a40c                msdc_cap

.data.num_of_emi_records
                0xc202a41c        0x4
 .data.num_of_emi_records
                0xc202a41c        0x4 /media/source/kernel-3.4.0/mediatek/preloader/out/custom_emi.o
                0xc202a41c                num_of_emi_records

.data.emi_settings
                0xc202a420       0x88
 .data.emi_settings
                0xc202a420       0x88 /media/source/kernel-3.4.0/mediatek/preloader/out/custom_emi.o
                0xc202a420                emi_settings

.data.rel.local.platform_parts
                0xc202a4a8      0x3c0
 .data.rel.local.platform_parts
                0xc202a4a8      0x3c0 /media/source/kernel-3.4.0/mediatek/preloader/out/cust_part.o

.data.rel.dqs_gw_test_cases_2_2ranks
                0xc202a868       0x20
 .data.rel.dqs_gw_test_cases_2_2ranks
                0xc202a868       0x20 /media/source/kernel-3.4.0/mediatek/preloader/out/dramc_dqs_gw.o
                0xc202a868                dqs_gw_test_cases_2_2ranks

.data.rel.local.dqsi_gw_dly_fine_tbl
                0xc202a888       0x44
 .data.rel.local.dqsi_gw_dly_fine_tbl
                0xc202a888       0x44 /media/source/kernel-3.4.0/mediatek/preloader/out/dramc_dqs_gw.o
                0xc202a888                dqsi_gw_dly_fine_tbl

.data.rel.local.dqsi_gw_dly_coarse_tbl
                0xc202a8cc       0x34
 .data.rel.local.dqsi_gw_dly_coarse_tbl
                0xc202a8cc       0x34 /media/source/kernel-3.4.0/mediatek/preloader/out/dramc_dqs_gw.o
                0xc202a8cc                dqsi_gw_dly_coarse_tbl

.data.rel.dqs_gw_test_cases_1
                0xc202a900       0x10
 .data.rel.dqs_gw_test_cases_1
                0xc202a900       0x10 /media/source/kernel-3.4.0/mediatek/preloader/out/dramc_dqs_gw.o
                0xc202a900                dqs_gw_test_cases_1

.data.rel.dqs_gw_test_cases_2
                0xc202a910       0x10
 .data.rel.dqs_gw_test_cases_2
                0xc202a910       0x10 /media/source/kernel-3.4.0/mediatek/preloader/out/dramc_dqs_gw.o
                0xc202a910                dqs_gw_test_cases_2

.data.rel.dqs_gw_tuning_factors
                0xc202a920       0x28
 .data.rel.dqs_gw_tuning_factors
                0xc202a920       0x28 /media/source/kernel-3.4.0/mediatek/preloader/out/dramc_dqs_gw.o
                0xc202a920                dqs_gw_tuning_factors

.data.gpio_dat  0xc202a948        0x4
 .data.gpio_dat
                0xc202a948        0x4 /media/source/kernel-3.4.0/mediatek/preloader/out/gpio.o

.data.mdl_number.1352
                0xc202a94c        0x4
 .data.mdl_number.1352
                0xc202a94c        0x4 /media/source/kernel-3.4.0/mediatek/preloader/out/mt_emi.o

.data.g_line_coding
                0xc202a950        0x7
 .data.g_line_coding
                0xc202a950        0x7 /media/source/kernel-3.4.0/mediatek/preloader/out/mt_usbd.o

.data.fifo_addr
                0xc202a958        0x4
 .data.fifo_addr
                0xc202a958        0x4 /media/source/kernel-3.4.0/mediatek/preloader/out/mt_usbd.o
                0xc202a958                fifo_addr

.data.rel.local.fs_data_ep_descriptor_ptrs
                0xc202a95c        0x8
 .data.rel.local.fs_data_ep_descriptor_ptrs
                0xc202a95c        0x8 /media/source/kernel-3.4.0/mediatek/preloader/out/mt_usbtty.o

.data.rel.local.usbtty_string_table
                0xc202a964       0x18
 .data.rel.local.usbtty_string_table
                0xc202a964       0x18 /media/source/kernel-3.4.0/mediatek/preloader/out/mt_usbtty.o

.data.header_function_descriptor
                0xc202a97c        0x5
 .data.header_function_descriptor
                0xc202a97c        0x5 /media/source/kernel-3.4.0/mediatek/preloader/out/mt_usbtty.o

.data.rel.local.fs_comm_ep_descriptor_ptrs
                0xc202a984        0x4
 .data.rel.local.fs_comm_ep_descriptor_ptrs
                0xc202a984        0x4 /media/source/kernel-3.4.0/mediatek/preloader/out/mt_usbtty.o

.data.rel.local.hs_comm_ep_descriptor_ptrs
                0xc202a988        0x4
 .data.rel.local.hs_comm_ep_descriptor_ptrs
                0xc202a988        0x4 /media/source/kernel-3.4.0/mediatek/preloader/out/mt_usbtty.o

.data.call_management_descriptor
                0xc202a98c        0x5
 .data.call_management_descriptor
                0xc202a98c        0x5 /media/source/kernel-3.4.0/mediatek/preloader/out/mt_usbtty.o
                0xc202a98c                call_management_descriptor

.data.rel.local.hs_data_ep_descriptor_ptrs
                0xc202a994        0x8
 .data.rel.local.hs_data_ep_descriptor_ptrs
                0xc202a994        0x8 /media/source/kernel-3.4.0/mediatek/preloader/out/mt_usbtty.o

.data.language  0xc202a99c        0x4
 .data.language
                0xc202a99c        0x4 /media/source/kernel-3.4.0/mediatek/preloader/out/mt_usbtty.o

.data.hs_ep_descriptors
                0xc202a9a0       0x15
 .data.hs_ep_descriptors
                0xc202a9a0       0x15 /media/source/kernel-3.4.0/mediatek/preloader/out/mt_usbtty.o

.data.device_descriptor
                0xc202a9b5       0x12
 .data.device_descriptor
                0xc202a9b5       0x12 /media/source/kernel-3.4.0/mediatek/preloader/out/mt_usbtty.o

.data.abstract_control_descriptor
                0xc202a9c7        0x4
 .data.abstract_control_descriptor
                0xc202a9c7        0x4 /media/source/kernel-3.4.0/mediatek/preloader/out/mt_usbtty.o

.data.fs_ep_descriptors
                0xc202a9cb       0x15
 .data.fs_ep_descriptors
                0xc202a9cb       0x15 /media/source/kernel-3.4.0/mediatek/preloader/out/mt_usbtty.o

.data.interface_descriptors
                0xc202a9e0       0x12
 .data.interface_descriptors
                0xc202a9e0       0x12 /media/source/kernel-3.4.0/mediatek/preloader/out/mt_usbtty.o

.data.device_qualifier_descriptor
                0xc202a9f2        0x9
 .data.device_qualifier_descriptor
                0xc202a9f2        0x9 /media/source/kernel-3.4.0/mediatek/preloader/out/mt_usbtty.o

.data.config_descriptors
                0xc202a9fb        0x9
 .data.config_descriptors
                0xc202a9fb        0x9 /media/source/kernel-3.4.0/mediatek/preloader/out/mt_usbtty.o

.data.union_function_descriptor
                0xc202aa04        0x5
 .data.union_function_descriptor
                0xc202aa04        0x5 /media/source/kernel-3.4.0/mediatek/preloader/out/mt_usbtty.o
                0xc202aa04                union_function_descriptor

.data.log_ptr   0xc202aa0c        0x4
 .data.log_ptr  0xc202aa0c        0x4 /media/source/kernel-3.4.0/mediatek/preloader/out/print.o

.data.g_uart    0xc202aa10        0x4
 .data.g_uart   0xc202aa10        0x4 /media/source/kernel-3.4.0/mediatek/preloader/out/uart.o
                0xc202aa10                g_uart

.data.sec_crypto_sig_size
                0xc202aa14       0x10
 .data.sec_crypto_sig_size
                0xc202aa14       0x10 /media/source/kernel-3.4.0/mediatek/platform/mt6577/preloader/src/SecLib.a(seclib_img_verify.o)
                0xc202aa14                sec_crypto_sig_size

.data.sec_crypto_hash_size
                0xc202aa24       0x14
 .data.sec_crypto_hash_size
                0xc202aa24       0x14 /media/source/kernel-3.4.0/mediatek/platform/mt6577/preloader/src/SecLib.a(seclib_img_verify.o)
                0xc202aa24                sec_crypto_hash_size

.data.heap_max_size
                0xc202aa38        0x4
 .data.heap_max_size
                0xc202aa38        0x4 /media/source/kernel-3.4.0/mediatek/platform/mt6577/preloader/src/security/auth/DaVerifyLib.a(stdlib.o)
                0xc202aa38                heap_max_size

.got            0xc202aa3c       0xec
 ** GOT         0xc202aa3c       0xe0
 ** GOT PLT     0xc202ab1c        0xc

.bss            0xf0008400     0x6610
 .bss.blkdev_list
                0xf0008400        0x4 /media/source/kernel-3.4.0/mediatek/preloader/out/blkdev.o
 .bss.g_usb_input_buf
                0xf0008404      0x400 /media/source/kernel-3.4.0/mediatek/preloader/out/circbuf.o
 .bss.g_usb_output_buf
                0xf0008804      0x400 /media/source/kernel-3.4.0/mediatek/preloader/out/circbuf.o
 .bss.g_I2C_CmdBuf
                0xf0008c04       0x20 /media/source/kernel-3.4.0/mediatek/preloader/out/download.o
 .bss.dlcomport
                0xf0008c24        0x4 /media/source/kernel-3.4.0/mediatek/preloader/out/download.o
 .bss.g_I2C_DataBuf
                0xf0008c28       0x20 /media/source/kernel-3.4.0/mediatek/preloader/out/download.o
 .bss.dq_dqs_cal
                0xf0008c48        0x4 /media/source/kernel-3.4.0/mediatek/preloader/out/dramc_calib.o
                0xf0008c48                dq_dqs_cal
 .bss.dqs_gw_coarse
                0xf0008c4c        0x4 /media/source/kernel-3.4.0/mediatek/preloader/out/dramc_dqs_gw.o
 .bss.max_pwin  0xf0008c50        0xc /media/source/kernel-3.4.0/mediatek/preloader/out/dramc_dqs_gw.o
 .bss.dqs_gw_fine
                0xf0008c5c        0x4 /media/source/kernel-3.4.0/mediatek/preloader/out/dramc_dqs_gw.o
 .bss.high_score
                0xf0008c60        0x4 /media/source/kernel-3.4.0/mediatek/preloader/out/dramc_dqs_gw.o
                0xf0008c60                high_score
 .bss.score     0xf0008c64        0x4 /media/source/kernel-3.4.0/mediatek/preloader/out/dramc_dqs_gw.o
                0xf0008c64                score
 .bss.dqs_gw    0xf0008c68       0x30 /media/source/kernel-3.4.0/mediatek/preloader/out/dramc_dqs_gw.o
 .bss.cur_pwin  0xf0008c98        0xc /media/source/kernel-3.4.0/mediatek/preloader/out/dramc_dqs_gw.o
 .bss.g_meta_ready_start_time
                0xf0008ca4        0x4 /media/source/kernel-3.4.0/mediatek/preloader/out/handshake_uart.o
 .bss.g_addr_trans_tbl
                0xf0008ca8        0x8 /media/source/kernel-3.4.0/mediatek/preloader/out/mmc_common_inter.o
 .bss.g_mmc_bdev
                0xf0008cb0       0x28 /media/source/kernel-3.4.0/mediatek/preloader/out/mmc_common_inter.o
 .bss.g_emmc_size
                0xf0008cd8        0x8 /media/source/kernel-3.4.0/mediatek/preloader/out/mmc_common_inter.o
                0xf0008cd8                g_emmc_size
 .bss.g_emmc_addr_trans
                0xf0008ce0       0x90 /media/source/kernel-3.4.0/mediatek/preloader/out/mmc_common_inter.o
 .bss.sd_card   0xf0008d70      0x5b0 /media/source/kernel-3.4.0/mediatek/preloader/out/mmc_core.o
 .bss.sd_host   0xf0009320       0xc0 /media/source/kernel-3.4.0/mediatek/preloader/out/mmc_core.o
 .bss.msdc_priv
                0xf00093e0       0xe0 /media/source/kernel-3.4.0/mediatek/preloader/out/msdc.o
 .bss.id        0xf00094c0       0x10 /media/source/kernel-3.4.0/mediatek/preloader/out/mt_emi.o
 .bss.found.1351
                0xf00094d0        0x4 /media/source/kernel-3.4.0/mediatek/preloader/out/mt_emi.o
 .bss.ddr_type  0xf00094d4        0x4 /media/source/kernel-3.4.0/mediatek/preloader/out/mt_emi.o
                0xf00094d4                ddr_type
 .bss.timestamp
                0xf00094d8        0x4 /media/source/kernel-3.4.0/mediatek/preloader/out/mtk_timer.o
 .bss.lastinc   0xf00094dc        0x4 /media/source/kernel-3.4.0/mediatek/preloader/out/mtk_timer.o
 .bss.status.1251
                0xf00094e0        0x4 /media/source/kernel-3.4.0/mediatek/preloader/out/mtk_wdt.o
 .bss.g_rgu_status
                0xf00094e4        0x4 /media/source/kernel-3.4.0/mediatek/preloader/out/mtk_wdt.o
                0xf00094e4                g_rgu_status
 .bss.reboot_from
                0xf00094e8        0x2 /media/source/kernel-3.4.0/mediatek/preloader/out/mtk_wdt.o
 .bss.rgu_mode  0xf00094ea        0x2 /media/source/kernel-3.4.0/mediatek/preloader/out/mtk_wdt.o
 .bss.timeout   0xf00094ec        0x2 /media/source/kernel-3.4.0/mediatek/preloader/out/mtk_wdt.o
 .bss.g_charger_in_flag
                0xf00094f0        0x4 /media/source/kernel-3.4.0/mediatek/preloader/out/mt_pmic6329.o
                0xf00094f0                g_charger_in_flag
 .bss.g_ret     0xf00094f4        0x4 /media/source/kernel-3.4.0/mediatek/preloader/out/mt_pmic6329.o
                0xf00094f4                g_ret
 .bss.g_first_check
                0xf00094f8        0x4 /media/source/kernel-3.4.0/mediatek/preloader/out/mt_pmic6329.o
                0xf00094f8                g_first_check
 .bss.set_address
                0xf00094fc        0x4 /media/source/kernel-3.4.0/mediatek/preloader/out/mt_usbd.o
                0xf00094fc                set_address
 .bss.ep0_urb   0xf0009500        0x4 /media/source/kernel-3.4.0/mediatek/preloader/out/mt_usbd.o
 .bss.udc_device
                0xf0009504        0x4 /media/source/kernel-3.4.0/mediatek/preloader/out/mt_usbd.o
 .bss.ep0_state
                0xf0009508        0x4 /media/source/kernel-3.4.0/mediatek/preloader/out/mt_usbd.o
                0xf0009508                ep0_state
 .bss.commInterface
                0xf000950c       0x40 /media/source/kernel-3.4.0/mediatek/preloader/out/mt_usbtty.o
 .bss.mt_usb_config
                0xf000954c        0xc /media/source/kernel-3.4.0/mediatek/preloader/out/mt_usbtty.o
 .bss.mt_ep0_urb
                0xf0009558      0x41c /media/source/kernel-3.4.0/mediatek/preloader/out/mt_usbtty.o
                0xf0009558                mt_ep0_urb
 .bss.mt_usb_comm_alternate_interface
                0xf0009974       0x1c /media/source/kernel-3.4.0/mediatek/preloader/out/mt_usbtty.o
 .bss.mt_usb_ep
                0xf0009990       0x70 /media/source/kernel-3.4.0/mediatek/preloader/out/mt_usbtty.o
 .bss.mt_usb_data_interface
                0xf0009a00        0x8 /media/source/kernel-3.4.0/mediatek/preloader/out/mt_usbtty.o
 .bss.usb_configured
                0xf0009a08        0x4 /media/source/kernel-3.4.0/mediatek/preloader/out/mt_usbtty.o
                0xf0009a08                usb_configured
 .bss.usb_string_table
                0xf0009a0c        0x4 /media/source/kernel-3.4.0/mediatek/preloader/out/mt_usbtty.o
                0xf0009a0c                usb_string_table
 .bss.usb_output_buffer
                0xf0009a10       0x18 /media/source/kernel-3.4.0/mediatek/preloader/out/mt_usbtty.o
 .bss.mt_rx_urb
                0xf0009a28      0x41c /media/source/kernel-3.4.0/mediatek/preloader/out/mt_usbtty.o
                0xf0009a28                mt_rx_urb
 .bss.mt_tx_urb
                0xf0009e44      0x41c /media/source/kernel-3.4.0/mediatek/preloader/out/mt_usbtty.o
                0xf0009e44                mt_tx_urb
 .bss.dataInterface
                0xf000a260       0x2e /media/source/kernel-3.4.0/mediatek/preloader/out/mt_usbtty.o
 .bss.mt_usb_comm_interface
                0xf000a290        0x8 /media/source/kernel-3.4.0/mediatek/preloader/out/mt_usbtty.o
 .bss.usb_input_buffer
                0xf000a298       0x18 /media/source/kernel-3.4.0/mediatek/preloader/out/mt_usbtty.o
 .bss.mt_usb_device
                0xf000a2b0       0x28 /media/source/kernel-3.4.0/mediatek/preloader/out/mt_usbtty.o
 .bss.mt_usb_data_alternate_interface
                0xf000a2d8       0x1c /media/source/kernel-3.4.0/mediatek/preloader/out/mt_usbtty.o
 .bss.configuration
                0xf000a2f4       0x34 /media/source/kernel-3.4.0/mediatek/preloader/out/mt_usbtty.o
 .bss.product   0xf000a328       0x22 /media/source/kernel-3.4.0/mediatek/preloader/out/mt_usbtty.o
 .bss.manufacturer
                0xf000a34a       0x12 /media/source/kernel-3.4.0/mediatek/preloader/out/mt_usbtty.o
 .bss.tool_exists
                0xf000a35c        0x4 /media/source/kernel-3.4.0/mediatek/preloader/out/mt_usbtty.o
                0xf000a35c                tool_exists
 .bss.mt_usb_interface
                0xf000a360        0x8 /media/source/kernel-3.4.0/mediatek/preloader/out/mt_usbtty.o
 .bss.PAGE_SIZE
                0xf000a368        0x4 /media/source/kernel-3.4.0/mediatek/preloader/out/nand_common_inter.o
                0xf000a368                PAGE_SIZE
 .bss.tempart   0xf000a370       0x18 /media/source/kernel-3.4.0/mediatek/preloader/out/partition_mt.o
 .bss.lastest_part
                0xf000a388      0xdc0 /media/source/kernel-3.4.0/mediatek/preloader/out/partition_mt.o
 .bss.new_part  0xf000b148      0xdc0 /media/source/kernel-3.4.0/mediatek/preloader/out/partition_mt.o
 .bss.page_readbuf
                0xf000bf08     0x1000 /media/source/kernel-3.4.0/mediatek/preloader/out/partition_mt.o
                0xf000bf08                page_readbuf
 .bss.lastest_part32
                0xf000cf08      0xbe0 /media/source/kernel-3.4.0/mediatek/preloader/out/partition_mt.o
                0xf000cf08                lastest_part32
 .bss.g_boot_time
                0xf000dae8        0x4 /media/source/kernel-3.4.0/mediatek/preloader/out/platform.o
                0xf000dae8                g_boot_time
 .bss.g_boot_mode
                0xf000daec        0x4 /media/source/kernel-3.4.0/mediatek/preloader/out/platform.o
                0xf000daec                g_boot_mode
 .bss.sys_stack
                0xf000daf0      0xc00 /media/source/kernel-3.4.0/mediatek/preloader/out/platform.o
                0xf000daf0                sys_stack
 .bss.g_boot_reason
                0xf000e6f0        0x4 /media/source/kernel-3.4.0/mediatek/preloader/out/platform.o
                0xf000e6f0                g_boot_reason
 .bss.g_meta_com_type
                0xf000e6f4        0x4 /media/source/kernel-3.4.0/mediatek/preloader/out/platform.o
                0xf000e6f4                g_meta_com_type
 .bss.g_meta_com_id
                0xf000e6f8        0x4 /media/source/kernel-3.4.0/mediatek/preloader/out/platform.o
                0xf000e6f8                g_meta_com_id
 .bss.g_log_disable
                0xf000e6fc        0x4 /media/source/kernel-3.4.0/mediatek/preloader/out/print.o
 .bss.g_SBC_PUBK
                0xf000e700      0x200 /media/source/kernel-3.4.0/mediatek/preloader/out/sec_key.o
                0xf000e700                g_SBC_PUBK
 .bss.sec_cfg_info
                0xf000e900        0x8 /media/source/kernel-3.4.0/mediatek/preloader/out/sec.o
                0xf000e900                sec_cfg_info
 .bss.secroimg  0xf000e908        0x4 /media/source/kernel-3.4.0/mediatek/preloader/out/sec_secroimg.o
                0xf000e908                secroimg
 .bss.bDumpPartInfo
                0xf000e90c        0x1 /media/source/kernel-3.4.0/mediatek/preloader/out/sec_util.o
                0xf000e90c                bDumpPartInfo
 .bss.bUsbHandshakeSuccess
                0xf000e90d        0x1 /media/source/kernel-3.4.0/mediatek/preloader/out/sec_util.o
 .bss.g_sha1_time
                0xf000e910        0x4 /media/source/kernel-3.4.0/mediatek/platform/mt6577/preloader/src/SecLib.a(seclib_img_hash.o)
                0xf000e910                g_sha1_time
 .bss.img_buf   0xf000e914        0x4 /media/source/kernel-3.4.0/mediatek/platform/mt6577/preloader/src/SecLib.a(seclib_img_verify.o)
 .bss.chunk_buf
                0xf000e918        0x4 /media/source/kernel-3.4.0/mediatek/platform/mt6577/preloader/src/SecLib.a(seclib_img_verify.o)
 .bss.img_buf_current_allocated
                0xf000e91c        0x4 /media/source/kernel-3.4.0/mediatek/platform/mt6577/preloader/src/SecLib.a(seclib_img_verify.o)
 .bss.g_cust    0xf000e920        0x4 /media/source/kernel-3.4.0/mediatek/platform/mt6577/preloader/src/SecLib.a(seclib.o)
                0xf000e920                g_cust
 .bss.g_sec_cfg
                0xf000e924        0x4 /media/source/kernel-3.4.0/mediatek/platform/mt6577/preloader/src/SecLib.a(seclib.o)
                0xf000e924                g_sec_cfg
 .bss.g_cust_name
                0xf000e928       0x20 /media/source/kernel-3.4.0/mediatek/platform/mt6577/preloader/src/SecLib.a(seclib.o)
                0xf000e928                g_cust_name
 .bss.sej_ctx   0xf000e948       0x54 /media/source/kernel-3.4.0/mediatek/platform/mt6577/preloader/src/SecLib.a(sej_sk.o)
 .bss.sha1sum   0xf000e99c       0x14 /media/source/kernel-3.4.0/mediatek/platform/mt6577/preloader/src/SecLib.a(sha1.o)
                0xf000e99c                sha1sum
 .bss.rsa       0xf000e9b0       0x5c /media/source/kernel-3.4.0/mediatek/platform/mt6577/preloader/src/security/auth/DaVerifyLib.a(rsa.o)
                0xf000e9b0                rsa
 .bss.heap_current_alloc
                0xf000ea0c        0x4 /media/source/kernel-3.4.0/mediatek/platform/mt6577/preloader/src/security/auth/DaVerifyLib.a(stdlib.o)
                0xf000ea0c                heap_current_alloc
